
proxy:     file format elf64-x86-64


Disassembly of section .init:

0000000000401b58 <_init>:
  401b58:	48 83 ec 08          	sub    $0x8,%rsp
  401b5c:	e8 0b 06 00 00       	callq  40216c <call_gmon_start>
  401b61:	e8 0a 07 00 00       	callq  402270 <frame_dummy>
  401b66:	e8 f5 3c 00 00       	callq  405860 <__do_global_ctors_aux>
  401b6b:	48 83 c4 08          	add    $0x8,%rsp
  401b6f:	c3                   	retq   

Disassembly of section .plt:

0000000000401b70 <sem_wait@plt-0x10>:
  401b70:	ff 35 fa 5c 20 00    	pushq  0x205cfa(%rip)        # 607870 <_GLOBAL_OFFSET_TABLE_+0x8>
  401b76:	ff 25 fc 5c 20 00    	jmpq   *0x205cfc(%rip)        # 607878 <_GLOBAL_OFFSET_TABLE_+0x10>
  401b7c:	0f 1f 40 00          	nopl   0x0(%rax)

0000000000401b80 <sem_wait@plt>:
  401b80:	ff 25 fa 5c 20 00    	jmpq   *0x205cfa(%rip)        # 607880 <_GLOBAL_OFFSET_TABLE_+0x18>
  401b86:	68 00 00 00 00       	pushq  $0x0
  401b8b:	e9 e0 ff ff ff       	jmpq   401b70 <_init+0x18>

0000000000401b90 <dup2@plt>:
  401b90:	ff 25 f2 5c 20 00    	jmpq   *0x205cf2(%rip)        # 607888 <_GLOBAL_OFFSET_TABLE_+0x20>
  401b96:	68 01 00 00 00       	pushq  $0x1
  401b9b:	e9 d0 ff ff ff       	jmpq   401b70 <_init+0x18>

0000000000401ba0 <printf@plt>:
  401ba0:	ff 25 ea 5c 20 00    	jmpq   *0x205cea(%rip)        # 607890 <_GLOBAL_OFFSET_TABLE_+0x28>
  401ba6:	68 02 00 00 00       	pushq  $0x2
  401bab:	e9 c0 ff ff ff       	jmpq   401b70 <_init+0x18>

0000000000401bb0 <pause@plt>:
  401bb0:	ff 25 e2 5c 20 00    	jmpq   *0x205ce2(%rip)        # 607898 <_GLOBAL_OFFSET_TABLE_+0x30>
  401bb6:	68 03 00 00 00       	pushq  $0x3
  401bbb:	e9 b0 ff ff ff       	jmpq   401b70 <_init+0x18>

0000000000401bc0 <memset@plt>:
  401bc0:	ff 25 da 5c 20 00    	jmpq   *0x205cda(%rip)        # 6078a0 <_GLOBAL_OFFSET_TABLE_+0x38>
  401bc6:	68 04 00 00 00       	pushq  $0x4
  401bcb:	e9 a0 ff ff ff       	jmpq   401b70 <_init+0x18>

0000000000401bd0 <inet_pton@plt>:
  401bd0:	ff 25 d2 5c 20 00    	jmpq   *0x205cd2(%rip)        # 6078a8 <_GLOBAL_OFFSET_TABLE_+0x40>
  401bd6:	68 05 00 00 00       	pushq  $0x5
  401bdb:	e9 90 ff ff ff       	jmpq   401b70 <_init+0x18>

0000000000401be0 <close@plt>:
  401be0:	ff 25 ca 5c 20 00    	jmpq   *0x205cca(%rip)        # 6078b0 <_GLOBAL_OFFSET_TABLE_+0x48>
  401be6:	68 06 00 00 00       	pushq  $0x6
  401beb:	e9 80 ff ff ff       	jmpq   401b70 <_init+0x18>

0000000000401bf0 <wait@plt>:
  401bf0:	ff 25 c2 5c 20 00    	jmpq   *0x205cc2(%rip)        # 6078b8 <_GLOBAL_OFFSET_TABLE_+0x50>
  401bf6:	68 07 00 00 00       	pushq  $0x7
  401bfb:	e9 70 ff ff ff       	jmpq   401b70 <_init+0x18>

0000000000401c00 <getpgrp@plt>:
  401c00:	ff 25 ba 5c 20 00    	jmpq   *0x205cba(%rip)        # 6078c0 <_GLOBAL_OFFSET_TABLE_+0x58>
  401c06:	68 08 00 00 00       	pushq  $0x8
  401c0b:	e9 60 ff ff ff       	jmpq   401b70 <_init+0x18>

0000000000401c10 <gethostbyname@plt>:
  401c10:	ff 25 b2 5c 20 00    	jmpq   *0x205cb2(%rip)        # 6078c8 <_GLOBAL_OFFSET_TABLE_+0x60>
  401c16:	68 09 00 00 00       	pushq  $0x9
  401c1b:	e9 50 ff ff ff       	jmpq   401b70 <_init+0x18>

0000000000401c20 <puts@plt>:
  401c20:	ff 25 aa 5c 20 00    	jmpq   *0x205caa(%rip)        # 6078d0 <_GLOBAL_OFFSET_TABLE_+0x68>
  401c26:	68 0a 00 00 00       	pushq  $0xa
  401c2b:	e9 40 ff ff ff       	jmpq   401b70 <_init+0x18>

0000000000401c30 <__isoc99_sscanf@plt>:
  401c30:	ff 25 a2 5c 20 00    	jmpq   *0x205ca2(%rip)        # 6078d8 <_GLOBAL_OFFSET_TABLE_+0x70>
  401c36:	68 0b 00 00 00       	pushq  $0xb
  401c3b:	e9 30 ff ff ff       	jmpq   401b70 <_init+0x18>

0000000000401c40 <select@plt>:
  401c40:	ff 25 9a 5c 20 00    	jmpq   *0x205c9a(%rip)        # 6078e0 <_GLOBAL_OFFSET_TABLE_+0x78>
  401c46:	68 0c 00 00 00       	pushq  $0xc
  401c4b:	e9 20 ff ff ff       	jmpq   401b70 <_init+0x18>

0000000000401c50 <exit@plt>:
  401c50:	ff 25 92 5c 20 00    	jmpq   *0x205c92(%rip)        # 6078e8 <_GLOBAL_OFFSET_TABLE_+0x80>
  401c56:	68 0d 00 00 00       	pushq  $0xd
  401c5b:	e9 10 ff ff ff       	jmpq   401b70 <_init+0x18>

0000000000401c60 <getaddrinfo@plt>:
  401c60:	ff 25 8a 5c 20 00    	jmpq   *0x205c8a(%rip)        # 6078f0 <_GLOBAL_OFFSET_TABLE_+0x88>
  401c66:	68 0e 00 00 00       	pushq  $0xe
  401c6b:	e9 00 ff ff ff       	jmpq   401b70 <_init+0x18>

0000000000401c70 <read@plt>:
  401c70:	ff 25 82 5c 20 00    	jmpq   *0x205c82(%rip)        # 6078f8 <_GLOBAL_OFFSET_TABLE_+0x90>
  401c76:	68 0f 00 00 00       	pushq  $0xf
  401c7b:	e9 f0 fe ff ff       	jmpq   401b70 <_init+0x18>

0000000000401c80 <malloc@plt>:
  401c80:	ff 25 7a 5c 20 00    	jmpq   *0x205c7a(%rip)        # 607900 <_GLOBAL_OFFSET_TABLE_+0x98>
  401c86:	68 10 00 00 00       	pushq  $0x10
  401c8b:	e9 e0 fe ff ff       	jmpq   401b70 <_init+0x18>

0000000000401c90 <fopen@plt>:
  401c90:	ff 25 72 5c 20 00    	jmpq   *0x205c72(%rip)        # 607908 <_GLOBAL_OFFSET_TABLE_+0xa0>
  401c96:	68 11 00 00 00       	pushq  $0x11
  401c9b:	e9 d0 fe ff ff       	jmpq   401b70 <_init+0x18>

0000000000401ca0 <__libc_start_main@plt>:
  401ca0:	ff 25 6a 5c 20 00    	jmpq   *0x205c6a(%rip)        # 607910 <_GLOBAL_OFFSET_TABLE_+0xa8>
  401ca6:	68 12 00 00 00       	pushq  $0x12
  401cab:	e9 c0 fe ff ff       	jmpq   401b70 <_init+0x18>

0000000000401cb0 <sigfillset@plt>:
  401cb0:	ff 25 62 5c 20 00    	jmpq   *0x205c62(%rip)        # 607918 <_GLOBAL_OFFSET_TABLE_+0xb0>
  401cb6:	68 13 00 00 00       	pushq  $0x13
  401cbb:	e9 b0 fe ff ff       	jmpq   401b70 <_init+0x18>

0000000000401cc0 <pthread_rwlock_destroy@plt>:
  401cc0:	ff 25 5a 5c 20 00    	jmpq   *0x205c5a(%rip)        # 607920 <_GLOBAL_OFFSET_TABLE_+0xb8>
  401cc6:	68 14 00 00 00       	pushq  $0x14
  401ccb:	e9 a0 fe ff ff       	jmpq   401b70 <_init+0x18>

0000000000401cd0 <_exit@plt>:
  401cd0:	ff 25 52 5c 20 00    	jmpq   *0x205c52(%rip)        # 607928 <_GLOBAL_OFFSET_TABLE_+0xc0>
  401cd6:	68 15 00 00 00       	pushq  $0x15
  401cdb:	e9 90 fe ff ff       	jmpq   401b70 <_init+0x18>

0000000000401ce0 <sigismember@plt>:
  401ce0:	ff 25 4a 5c 20 00    	jmpq   *0x205c4a(%rip)        # 607930 <_GLOBAL_OFFSET_TABLE_+0xc8>
  401ce6:	68 16 00 00 00       	pushq  $0x16
  401ceb:	e9 80 fe ff ff       	jmpq   401b70 <_init+0x18>

0000000000401cf0 <setsockopt@plt>:
  401cf0:	ff 25 42 5c 20 00    	jmpq   *0x205c42(%rip)        # 607938 <_GLOBAL_OFFSET_TABLE_+0xd0>
  401cf6:	68 17 00 00 00       	pushq  $0x17
  401cfb:	e9 70 fe ff ff       	jmpq   401b70 <_init+0x18>

0000000000401d00 <setpgid@plt>:
  401d00:	ff 25 3a 5c 20 00    	jmpq   *0x205c3a(%rip)        # 607940 <_GLOBAL_OFFSET_TABLE_+0xd8>
  401d06:	68 18 00 00 00       	pushq  $0x18
  401d0b:	e9 60 fe ff ff       	jmpq   401b70 <_init+0x18>

0000000000401d10 <fgets@plt>:
  401d10:	ff 25 32 5c 20 00    	jmpq   *0x205c32(%rip)        # 607948 <_GLOBAL_OFFSET_TABLE_+0xe0>
  401d16:	68 19 00 00 00       	pushq  $0x19
  401d1b:	e9 50 fe ff ff       	jmpq   401b70 <_init+0x18>

0000000000401d20 <sigsuspend@plt>:
  401d20:	ff 25 2a 5c 20 00    	jmpq   *0x205c2a(%rip)        # 607950 <_GLOBAL_OFFSET_TABLE_+0xe8>
  401d26:	68 1a 00 00 00       	pushq  $0x1a
  401d2b:	e9 40 fe ff ff       	jmpq   401b70 <_init+0x18>

0000000000401d30 <freeaddrinfo@plt>:
  401d30:	ff 25 22 5c 20 00    	jmpq   *0x205c22(%rip)        # 607958 <_GLOBAL_OFFSET_TABLE_+0xf0>
  401d36:	68 1b 00 00 00       	pushq  $0x1b
  401d3b:	e9 30 fe ff ff       	jmpq   401b70 <_init+0x18>

0000000000401d40 <free@plt>:
  401d40:	ff 25 1a 5c 20 00    	jmpq   *0x205c1a(%rip)        # 607960 <_GLOBAL_OFFSET_TABLE_+0xf8>
  401d46:	68 1c 00 00 00       	pushq  $0x1c
  401d4b:	e9 20 fe ff ff       	jmpq   401b70 <_init+0x18>

0000000000401d50 <strlen@plt>:
  401d50:	ff 25 12 5c 20 00    	jmpq   *0x205c12(%rip)        # 607968 <_GLOBAL_OFFSET_TABLE_+0x100>
  401d56:	68 1d 00 00 00       	pushq  $0x1d
  401d5b:	e9 10 fe ff ff       	jmpq   401b70 <_init+0x18>

0000000000401d60 <ferror@plt>:
  401d60:	ff 25 0a 5c 20 00    	jmpq   *0x205c0a(%rip)        # 607970 <_GLOBAL_OFFSET_TABLE_+0x108>
  401d66:	68 1e 00 00 00       	pushq  $0x1e
  401d6b:	e9 00 fe ff ff       	jmpq   401b70 <_init+0x18>

0000000000401d70 <pthread_create@plt>:
  401d70:	ff 25 02 5c 20 00    	jmpq   *0x205c02(%rip)        # 607978 <_GLOBAL_OFFSET_TABLE_+0x110>
  401d76:	68 1f 00 00 00       	pushq  $0x1f
  401d7b:	e9 f0 fd ff ff       	jmpq   401b70 <_init+0x18>

0000000000401d80 <opendir@plt>:
  401d80:	ff 25 fa 5b 20 00    	jmpq   *0x205bfa(%rip)        # 607980 <_GLOBAL_OFFSET_TABLE_+0x118>
  401d86:	68 20 00 00 00       	pushq  $0x20
  401d8b:	e9 e0 fd ff ff       	jmpq   401b70 <_init+0x18>

0000000000401d90 <__xstat@plt>:
  401d90:	ff 25 f2 5b 20 00    	jmpq   *0x205bf2(%rip)        # 607988 <_GLOBAL_OFFSET_TABLE_+0x120>
  401d96:	68 21 00 00 00       	pushq  $0x21
  401d9b:	e9 d0 fd ff ff       	jmpq   401b70 <_init+0x18>

0000000000401da0 <gethostbyaddr@plt>:
  401da0:	ff 25 ea 5b 20 00    	jmpq   *0x205bea(%rip)        # 607990 <_GLOBAL_OFFSET_TABLE_+0x128>
  401da6:	68 22 00 00 00       	pushq  $0x22
  401dab:	e9 c0 fd ff ff       	jmpq   401b70 <_init+0x18>

0000000000401db0 <listen@plt>:
  401db0:	ff 25 e2 5b 20 00    	jmpq   *0x205be2(%rip)        # 607998 <_GLOBAL_OFFSET_TABLE_+0x130>
  401db6:	68 23 00 00 00       	pushq  $0x23
  401dbb:	e9 b0 fd ff ff       	jmpq   401b70 <_init+0x18>

0000000000401dc0 <readdir@plt>:
  401dc0:	ff 25 da 5b 20 00    	jmpq   *0x205bda(%rip)        # 6079a0 <_GLOBAL_OFFSET_TABLE_+0x138>
  401dc6:	68 24 00 00 00       	pushq  $0x24
  401dcb:	e9 a0 fd ff ff       	jmpq   401b70 <_init+0x18>

0000000000401dd0 <sprintf@plt>:
  401dd0:	ff 25 d2 5b 20 00    	jmpq   *0x205bd2(%rip)        # 6079a8 <_GLOBAL_OFFSET_TABLE_+0x140>
  401dd6:	68 25 00 00 00       	pushq  $0x25
  401ddb:	e9 90 fd ff ff       	jmpq   401b70 <_init+0x18>

0000000000401de0 <fdopen@plt>:
  401de0:	ff 25 ca 5b 20 00    	jmpq   *0x205bca(%rip)        # 6079b0 <_GLOBAL_OFFSET_TABLE_+0x148>
  401de6:	68 26 00 00 00       	pushq  $0x26
  401deb:	e9 80 fd ff ff       	jmpq   401b70 <_init+0x18>

0000000000401df0 <strtok_r@plt>:
  401df0:	ff 25 c2 5b 20 00    	jmpq   *0x205bc2(%rip)        # 6079b8 <_GLOBAL_OFFSET_TABLE_+0x150>
  401df6:	68 27 00 00 00       	pushq  $0x27
  401dfb:	e9 70 fd ff ff       	jmpq   401b70 <_init+0x18>

0000000000401e00 <sleep@plt>:
  401e00:	ff 25 ba 5b 20 00    	jmpq   *0x205bba(%rip)        # 6079c0 <_GLOBAL_OFFSET_TABLE_+0x158>
  401e06:	68 28 00 00 00       	pushq  $0x28
  401e0b:	e9 60 fd ff ff       	jmpq   401b70 <_init+0x18>

0000000000401e10 <pthread_self@plt>:
  401e10:	ff 25 b2 5b 20 00    	jmpq   *0x205bb2(%rip)        # 6079c8 <_GLOBAL_OFFSET_TABLE_+0x160>
  401e16:	68 29 00 00 00       	pushq  $0x29
  401e1b:	e9 50 fd ff ff       	jmpq   401b70 <_init+0x18>

0000000000401e20 <pthread_join@plt>:
  401e20:	ff 25 aa 5b 20 00    	jmpq   *0x205baa(%rip)        # 6079d0 <_GLOBAL_OFFSET_TABLE_+0x168>
  401e26:	68 2a 00 00 00       	pushq  $0x2a
  401e2b:	e9 40 fd ff ff       	jmpq   401b70 <_init+0x18>

0000000000401e30 <kill@plt>:
  401e30:	ff 25 a2 5b 20 00    	jmpq   *0x205ba2(%rip)        # 6079d8 <_GLOBAL_OFFSET_TABLE_+0x170>
  401e36:	68 2b 00 00 00       	pushq  $0x2b
  401e3b:	e9 30 fd ff ff       	jmpq   401b70 <_init+0x18>

0000000000401e40 <strerror@plt>:
  401e40:	ff 25 9a 5b 20 00    	jmpq   *0x205b9a(%rip)        # 6079e0 <_GLOBAL_OFFSET_TABLE_+0x178>
  401e46:	68 2c 00 00 00       	pushq  $0x2c
  401e4b:	e9 20 fd ff ff       	jmpq   401b70 <_init+0x18>

0000000000401e50 <strstr@plt>:
  401e50:	ff 25 92 5b 20 00    	jmpq   *0x205b92(%rip)        # 6079e8 <_GLOBAL_OFFSET_TABLE_+0x180>
  401e56:	68 2d 00 00 00       	pushq  $0x2d
  401e5b:	e9 10 fd ff ff       	jmpq   401b70 <_init+0x18>

0000000000401e60 <sigprocmask@plt>:
  401e60:	ff 25 8a 5b 20 00    	jmpq   *0x205b8a(%rip)        # 6079f0 <_GLOBAL_OFFSET_TABLE_+0x188>
  401e66:	68 2e 00 00 00       	pushq  $0x2e
  401e6b:	e9 00 fd ff ff       	jmpq   401b70 <_init+0x18>

0000000000401e70 <sigaction@plt>:
  401e70:	ff 25 82 5b 20 00    	jmpq   *0x205b82(%rip)        # 6079f8 <_GLOBAL_OFFSET_TABLE_+0x190>
  401e76:	68 2f 00 00 00       	pushq  $0x2f
  401e7b:	e9 f0 fc ff ff       	jmpq   401b70 <_init+0x18>

0000000000401e80 <strcat@plt>:
  401e80:	ff 25 7a 5b 20 00    	jmpq   *0x205b7a(%rip)        # 607a00 <_GLOBAL_OFFSET_TABLE_+0x198>
  401e86:	68 30 00 00 00       	pushq  $0x30
  401e8b:	e9 e0 fc ff ff       	jmpq   401b70 <_init+0x18>

0000000000401e90 <pthread_exit@plt>:
  401e90:	ff 25 72 5b 20 00    	jmpq   *0x205b72(%rip)        # 607a08 <_GLOBAL_OFFSET_TABLE_+0x1a0>
  401e96:	68 31 00 00 00       	pushq  $0x31
  401e9b:	e9 d0 fc ff ff       	jmpq   401b70 <_init+0x18>

0000000000401ea0 <fputs@plt>:
  401ea0:	ff 25 6a 5b 20 00    	jmpq   *0x205b6a(%rip)        # 607a10 <_GLOBAL_OFFSET_TABLE_+0x1a8>
  401ea6:	68 32 00 00 00       	pushq  $0x32
  401eab:	e9 c0 fc ff ff       	jmpq   401b70 <_init+0x18>

0000000000401eb0 <lseek@plt>:
  401eb0:	ff 25 62 5b 20 00    	jmpq   *0x205b62(%rip)        # 607a18 <_GLOBAL_OFFSET_TABLE_+0x1b0>
  401eb6:	68 33 00 00 00       	pushq  $0x33
  401ebb:	e9 b0 fc ff ff       	jmpq   401b70 <_init+0x18>

0000000000401ec0 <connect@plt>:
  401ec0:	ff 25 5a 5b 20 00    	jmpq   *0x205b5a(%rip)        # 607a20 <_GLOBAL_OFFSET_TABLE_+0x1b8>
  401ec6:	68 34 00 00 00       	pushq  $0x34
  401ecb:	e9 a0 fc ff ff       	jmpq   401b70 <_init+0x18>

0000000000401ed0 <execve@plt>:
  401ed0:	ff 25 52 5b 20 00    	jmpq   *0x205b52(%rip)        # 607a28 <_GLOBAL_OFFSET_TABLE_+0x1c0>
  401ed6:	68 35 00 00 00       	pushq  $0x35
  401edb:	e9 90 fc ff ff       	jmpq   401b70 <_init+0x18>

0000000000401ee0 <memcpy@plt>:
  401ee0:	ff 25 4a 5b 20 00    	jmpq   *0x205b4a(%rip)        # 607a30 <_GLOBAL_OFFSET_TABLE_+0x1c8>
  401ee6:	68 36 00 00 00       	pushq  $0x36
  401eeb:	e9 80 fc ff ff       	jmpq   401b70 <_init+0x18>

0000000000401ef0 <pthread_rwlock_init@plt>:
  401ef0:	ff 25 42 5b 20 00    	jmpq   *0x205b42(%rip)        # 607a38 <_GLOBAL_OFFSET_TABLE_+0x1d0>
  401ef6:	68 37 00 00 00       	pushq  $0x37
  401efb:	e9 70 fc ff ff       	jmpq   401b70 <_init+0x18>

0000000000401f00 <waitpid@plt>:
  401f00:	ff 25 3a 5b 20 00    	jmpq   *0x205b3a(%rip)        # 607a40 <_GLOBAL_OFFSET_TABLE_+0x1d8>
  401f06:	68 38 00 00 00       	pushq  $0x38
  401f0b:	e9 60 fc ff ff       	jmpq   401b70 <_init+0x18>

0000000000401f10 <socket@plt>:
  401f10:	ff 25 32 5b 20 00    	jmpq   *0x205b32(%rip)        # 607a48 <_GLOBAL_OFFSET_TABLE_+0x1e0>
  401f16:	68 39 00 00 00       	pushq  $0x39
  401f1b:	e9 50 fc ff ff       	jmpq   401b70 <_init+0x18>

0000000000401f20 <fread@plt>:
  401f20:	ff 25 2a 5b 20 00    	jmpq   *0x205b2a(%rip)        # 607a50 <_GLOBAL_OFFSET_TABLE_+0x1e8>
  401f26:	68 3a 00 00 00       	pushq  $0x3a
  401f2b:	e9 40 fc ff ff       	jmpq   401b70 <_init+0x18>

0000000000401f30 <__fxstat@plt>:
  401f30:	ff 25 22 5b 20 00    	jmpq   *0x205b22(%rip)        # 607a58 <_GLOBAL_OFFSET_TABLE_+0x1f0>
  401f36:	68 3b 00 00 00       	pushq  $0x3b
  401f3b:	e9 30 fc ff ff       	jmpq   401b70 <_init+0x18>

0000000000401f40 <alarm@plt>:
  401f40:	ff 25 1a 5b 20 00    	jmpq   *0x205b1a(%rip)        # 607a60 <_GLOBAL_OFFSET_TABLE_+0x1f8>
  401f46:	68 3c 00 00 00       	pushq  $0x3c
  401f4b:	e9 20 fc ff ff       	jmpq   401b70 <_init+0x18>

0000000000401f50 <__errno_location@plt>:
  401f50:	ff 25 12 5b 20 00    	jmpq   *0x205b12(%rip)        # 607a68 <_GLOBAL_OFFSET_TABLE_+0x200>
  401f56:	68 3d 00 00 00       	pushq  $0x3d
  401f5b:	e9 10 fc ff ff       	jmpq   401b70 <_init+0x18>

0000000000401f60 <sigaddset@plt>:
  401f60:	ff 25 0a 5b 20 00    	jmpq   *0x205b0a(%rip)        # 607a70 <_GLOBAL_OFFSET_TABLE_+0x208>
  401f66:	68 3e 00 00 00       	pushq  $0x3e
  401f6b:	e9 00 fc ff ff       	jmpq   401b70 <_init+0x18>

0000000000401f70 <sem_init@plt>:
  401f70:	ff 25 02 5b 20 00    	jmpq   *0x205b02(%rip)        # 607a78 <_GLOBAL_OFFSET_TABLE_+0x210>
  401f76:	68 3f 00 00 00       	pushq  $0x3f
  401f7b:	e9 f0 fb ff ff       	jmpq   401b70 <_init+0x18>

0000000000401f80 <getnameinfo@plt>:
  401f80:	ff 25 fa 5a 20 00    	jmpq   *0x205afa(%rip)        # 607a80 <_GLOBAL_OFFSET_TABLE_+0x218>
  401f86:	68 40 00 00 00       	pushq  $0x40
  401f8b:	e9 e0 fb ff ff       	jmpq   401b70 <_init+0x18>

0000000000401f90 <strcmp@plt>:
  401f90:	ff 25 f2 5a 20 00    	jmpq   *0x205af2(%rip)        # 607a88 <_GLOBAL_OFFSET_TABLE_+0x220>
  401f96:	68 41 00 00 00       	pushq  $0x41
  401f9b:	e9 d0 fb ff ff       	jmpq   401b70 <_init+0x18>

0000000000401fa0 <index@plt>:
  401fa0:	ff 25 ea 5a 20 00    	jmpq   *0x205aea(%rip)        # 607a90 <_GLOBAL_OFFSET_TABLE_+0x228>
  401fa6:	68 42 00 00 00       	pushq  $0x42
  401fab:	e9 c0 fb ff ff       	jmpq   401b70 <_init+0x18>

0000000000401fb0 <sem_post@plt>:
  401fb0:	ff 25 e2 5a 20 00    	jmpq   *0x205ae2(%rip)        # 607a98 <_GLOBAL_OFFSET_TABLE_+0x230>
  401fb6:	68 43 00 00 00       	pushq  $0x43
  401fbb:	e9 b0 fb ff ff       	jmpq   401b70 <_init+0x18>

0000000000401fc0 <strcpy@plt>:
  401fc0:	ff 25 da 5a 20 00    	jmpq   *0x205ada(%rip)        # 607aa0 <_GLOBAL_OFFSET_TABLE_+0x238>
  401fc6:	68 44 00 00 00       	pushq  $0x44
  401fcb:	e9 a0 fb ff ff       	jmpq   401b70 <_init+0x18>

0000000000401fd0 <pthread_cancel@plt>:
  401fd0:	ff 25 d2 5a 20 00    	jmpq   *0x205ad2(%rip)        # 607aa8 <_GLOBAL_OFFSET_TABLE_+0x240>
  401fd6:	68 45 00 00 00       	pushq  $0x45
  401fdb:	e9 90 fb ff ff       	jmpq   401b70 <_init+0x18>

0000000000401fe0 <pthread_rwlock_rdlock@plt>:
  401fe0:	ff 25 ca 5a 20 00    	jmpq   *0x205aca(%rip)        # 607ab0 <_GLOBAL_OFFSET_TABLE_+0x248>
  401fe6:	68 46 00 00 00       	pushq  $0x46
  401feb:	e9 80 fb ff ff       	jmpq   401b70 <_init+0x18>

0000000000401ff0 <pthread_detach@plt>:
  401ff0:	ff 25 c2 5a 20 00    	jmpq   *0x205ac2(%rip)        # 607ab8 <_GLOBAL_OFFSET_TABLE_+0x250>
  401ff6:	68 47 00 00 00       	pushq  $0x47
  401ffb:	e9 70 fb ff ff       	jmpq   401b70 <_init+0x18>

0000000000402000 <pthread_once@plt>:
  402000:	ff 25 ba 5a 20 00    	jmpq   *0x205aba(%rip)        # 607ac0 <_GLOBAL_OFFSET_TABLE_+0x258>
  402006:	68 48 00 00 00       	pushq  $0x48
  40200b:	e9 60 fb ff ff       	jmpq   401b70 <_init+0x18>

0000000000402010 <calloc@plt>:
  402010:	ff 25 b2 5a 20 00    	jmpq   *0x205ab2(%rip)        # 607ac8 <_GLOBAL_OFFSET_TABLE_+0x260>
  402016:	68 49 00 00 00       	pushq  $0x49
  40201b:	e9 50 fb ff ff       	jmpq   401b70 <_init+0x18>

0000000000402020 <munmap@plt>:
  402020:	ff 25 aa 5a 20 00    	jmpq   *0x205aaa(%rip)        # 607ad0 <_GLOBAL_OFFSET_TABLE_+0x268>
  402026:	68 4a 00 00 00       	pushq  $0x4a
  40202b:	e9 40 fb ff ff       	jmpq   401b70 <_init+0x18>

0000000000402030 <fclose@plt>:
  402030:	ff 25 a2 5a 20 00    	jmpq   *0x205aa2(%rip)        # 607ad8 <_GLOBAL_OFFSET_TABLE_+0x270>
  402036:	68 4b 00 00 00       	pushq  $0x4b
  40203b:	e9 30 fb ff ff       	jmpq   401b70 <_init+0x18>

0000000000402040 <pthread_rwlock_wrlock@plt>:
  402040:	ff 25 9a 5a 20 00    	jmpq   *0x205a9a(%rip)        # 607ae0 <_GLOBAL_OFFSET_TABLE_+0x278>
  402046:	68 4c 00 00 00       	pushq  $0x4c
  40204b:	e9 20 fb ff ff       	jmpq   401b70 <_init+0x18>

0000000000402050 <closedir@plt>:
  402050:	ff 25 92 5a 20 00    	jmpq   *0x205a92(%rip)        # 607ae8 <_GLOBAL_OFFSET_TABLE_+0x280>
  402056:	68 4d 00 00 00       	pushq  $0x4d
  40205b:	e9 10 fb ff ff       	jmpq   401b70 <_init+0x18>

0000000000402060 <fork@plt>:
  402060:	ff 25 8a 5a 20 00    	jmpq   *0x205a8a(%rip)        # 607af0 <_GLOBAL_OFFSET_TABLE_+0x288>
  402066:	68 4e 00 00 00       	pushq  $0x4e
  40206b:	e9 00 fb ff ff       	jmpq   401b70 <_init+0x18>

0000000000402070 <sigemptyset@plt>:
  402070:	ff 25 82 5a 20 00    	jmpq   *0x205a82(%rip)        # 607af8 <_GLOBAL_OFFSET_TABLE_+0x290>
  402076:	68 4f 00 00 00       	pushq  $0x4f
  40207b:	e9 f0 fa ff ff       	jmpq   401b70 <_init+0x18>

0000000000402080 <bind@plt>:
  402080:	ff 25 7a 5a 20 00    	jmpq   *0x205a7a(%rip)        # 607b00 <_GLOBAL_OFFSET_TABLE_+0x298>
  402086:	68 50 00 00 00       	pushq  $0x50
  40208b:	e9 e0 fa ff ff       	jmpq   401b70 <_init+0x18>

0000000000402090 <fwrite@plt>:
  402090:	ff 25 72 5a 20 00    	jmpq   *0x205a72(%rip)        # 607b08 <_GLOBAL_OFFSET_TABLE_+0x2a0>
  402096:	68 51 00 00 00       	pushq  $0x51
  40209b:	e9 d0 fa ff ff       	jmpq   401b70 <_init+0x18>

00000000004020a0 <pthread_rwlock_unlock@plt>:
  4020a0:	ff 25 6a 5a 20 00    	jmpq   *0x205a6a(%rip)        # 607b10 <_GLOBAL_OFFSET_TABLE_+0x2a8>
  4020a6:	68 52 00 00 00       	pushq  $0x52
  4020ab:	e9 c0 fa ff ff       	jmpq   401b70 <_init+0x18>

00000000004020b0 <sigdelset@plt>:
  4020b0:	ff 25 62 5a 20 00    	jmpq   *0x205a62(%rip)        # 607b18 <_GLOBAL_OFFSET_TABLE_+0x2b0>
  4020b6:	68 53 00 00 00       	pushq  $0x53
  4020bb:	e9 b0 fa ff ff       	jmpq   401b70 <_init+0x18>

00000000004020c0 <realloc@plt>:
  4020c0:	ff 25 5a 5a 20 00    	jmpq   *0x205a5a(%rip)        # 607b20 <_GLOBAL_OFFSET_TABLE_+0x2b8>
  4020c6:	68 54 00 00 00       	pushq  $0x54
  4020cb:	e9 a0 fa ff ff       	jmpq   401b70 <_init+0x18>

00000000004020d0 <gai_strerror@plt>:
  4020d0:	ff 25 52 5a 20 00    	jmpq   *0x205a52(%rip)        # 607b28 <_GLOBAL_OFFSET_TABLE_+0x2c0>
  4020d6:	68 55 00 00 00       	pushq  $0x55
  4020db:	e9 90 fa ff ff       	jmpq   401b70 <_init+0x18>

00000000004020e0 <fprintf@plt>:
  4020e0:	ff 25 4a 5a 20 00    	jmpq   *0x205a4a(%rip)        # 607b30 <_GLOBAL_OFFSET_TABLE_+0x2c8>
  4020e6:	68 56 00 00 00       	pushq  $0x56
  4020eb:	e9 80 fa ff ff       	jmpq   401b70 <_init+0x18>

00000000004020f0 <write@plt>:
  4020f0:	ff 25 42 5a 20 00    	jmpq   *0x205a42(%rip)        # 607b38 <_GLOBAL_OFFSET_TABLE_+0x2d0>
  4020f6:	68 57 00 00 00       	pushq  $0x57
  4020fb:	e9 70 fa ff ff       	jmpq   401b70 <_init+0x18>

0000000000402100 <accept@plt>:
  402100:	ff 25 3a 5a 20 00    	jmpq   *0x205a3a(%rip)        # 607b40 <_GLOBAL_OFFSET_TABLE_+0x2d8>
  402106:	68 58 00 00 00       	pushq  $0x58
  40210b:	e9 60 fa ff ff       	jmpq   401b70 <_init+0x18>

0000000000402110 <inet_ntop@plt>:
  402110:	ff 25 32 5a 20 00    	jmpq   *0x205a32(%rip)        # 607b48 <_GLOBAL_OFFSET_TABLE_+0x2e0>
  402116:	68 59 00 00 00       	pushq  $0x59
  40211b:	e9 50 fa ff ff       	jmpq   401b70 <_init+0x18>

0000000000402120 <open@plt>:
  402120:	ff 25 2a 5a 20 00    	jmpq   *0x205a2a(%rip)        # 607b50 <_GLOBAL_OFFSET_TABLE_+0x2e8>
  402126:	68 5a 00 00 00       	pushq  $0x5a
  40212b:	e9 40 fa ff ff       	jmpq   401b70 <_init+0x18>

0000000000402130 <mmap@plt>:
  402130:	ff 25 22 5a 20 00    	jmpq   *0x205a22(%rip)        # 607b58 <_GLOBAL_OFFSET_TABLE_+0x2f0>
  402136:	68 5b 00 00 00       	pushq  $0x5b
  40213b:	e9 30 fa ff ff       	jmpq   401b70 <_init+0x18>

Disassembly of section .text:

0000000000402140 <_start>:
  402140:	31 ed                	xor    %ebp,%ebp
  402142:	49 89 d1             	mov    %rdx,%r9
  402145:	5e                   	pop    %rsi
  402146:	48 89 e2             	mov    %rsp,%rdx
  402149:	48 83 e4 f0          	and    $0xfffffffffffffff0,%rsp
  40214d:	50                   	push   %rax
  40214e:	54                   	push   %rsp
  40214f:	49 c7 c0 a0 57 40 00 	mov    $0x4057a0,%r8
  402156:	48 c7 c1 b0 57 40 00 	mov    $0x4057b0,%rcx
  40215d:	48 c7 c7 a0 22 40 00 	mov    $0x4022a0,%rdi
  402164:	e8 37 fb ff ff       	callq  401ca0 <__libc_start_main@plt>
  402169:	f4                   	hlt    
  40216a:	90                   	nop
  40216b:	90                   	nop

000000000040216c <call_gmon_start>:
  40216c:	48 83 ec 08          	sub    $0x8,%rsp
  402170:	48 8b 05 e9 56 20 00 	mov    0x2056e9(%rip),%rax        # 607860 <_DYNAMIC+0x1a0>
  402177:	48 85 c0             	test   %rax,%rax
  40217a:	74 02                	je     40217e <call_gmon_start+0x12>
  40217c:	ff d0                	callq  *%rax
  40217e:	48 83 c4 08          	add    $0x8,%rsp
  402182:	c3                   	retq   
  402183:	90                   	nop
  402184:	90                   	nop
  402185:	90                   	nop
  402186:	90                   	nop
  402187:	90                   	nop
  402188:	90                   	nop
  402189:	90                   	nop
  40218a:	90                   	nop
  40218b:	90                   	nop
  40218c:	90                   	nop
  40218d:	90                   	nop
  40218e:	90                   	nop
  40218f:	90                   	nop

0000000000402190 <deregister_tm_clones>:
  402190:	b8 af 7b 60 00       	mov    $0x607baf,%eax
  402195:	55                   	push   %rbp
  402196:	48 2d a8 7b 60 00    	sub    $0x607ba8,%rax
  40219c:	48 83 f8 0e          	cmp    $0xe,%rax
  4021a0:	48 89 e5             	mov    %rsp,%rbp
  4021a3:	77 02                	ja     4021a7 <deregister_tm_clones+0x17>
  4021a5:	5d                   	pop    %rbp
  4021a6:	c3                   	retq   
  4021a7:	b8 00 00 00 00       	mov    $0x0,%eax
  4021ac:	48 85 c0             	test   %rax,%rax
  4021af:	74 f4                	je     4021a5 <deregister_tm_clones+0x15>
  4021b1:	5d                   	pop    %rbp
  4021b2:	bf a8 7b 60 00       	mov    $0x607ba8,%edi
  4021b7:	ff e0                	jmpq   *%rax
  4021b9:	0f 1f 80 00 00 00 00 	nopl   0x0(%rax)

00000000004021c0 <register_tm_clones>:
  4021c0:	b8 a8 7b 60 00       	mov    $0x607ba8,%eax
  4021c5:	55                   	push   %rbp
  4021c6:	48 2d a8 7b 60 00    	sub    $0x607ba8,%rax
  4021cc:	48 c1 f8 03          	sar    $0x3,%rax
  4021d0:	48 89 e5             	mov    %rsp,%rbp
  4021d3:	48 89 c2             	mov    %rax,%rdx
  4021d6:	48 c1 ea 3f          	shr    $0x3f,%rdx
  4021da:	48 01 d0             	add    %rdx,%rax
  4021dd:	48 d1 f8             	sar    %rax
  4021e0:	75 02                	jne    4021e4 <register_tm_clones+0x24>
  4021e2:	5d                   	pop    %rbp
  4021e3:	c3                   	retq   
  4021e4:	ba 00 00 00 00       	mov    $0x0,%edx
  4021e9:	48 85 d2             	test   %rdx,%rdx
  4021ec:	74 f4                	je     4021e2 <register_tm_clones+0x22>
  4021ee:	5d                   	pop    %rbp
  4021ef:	48 89 c6             	mov    %rax,%rsi
  4021f2:	bf a8 7b 60 00       	mov    $0x607ba8,%edi
  4021f7:	ff e2                	jmpq   *%rdx
  4021f9:	0f 1f 80 00 00 00 00 	nopl   0x0(%rax)

0000000000402200 <__do_global_dtors_aux>:
  402200:	80 3d c1 59 20 00 00 	cmpb   $0x0,0x2059c1(%rip)        # 607bc8 <completed.6300>
  402207:	75 5f                	jne    402268 <__do_global_dtors_aux+0x68>
  402209:	55                   	push   %rbp
  40220a:	48 89 e5             	mov    %rsp,%rbp
  40220d:	53                   	push   %rbx
  40220e:	bb b0 76 60 00       	mov    $0x6076b0,%ebx
  402213:	48 81 eb a8 76 60 00 	sub    $0x6076a8,%rbx
  40221a:	48 83 ec 08          	sub    $0x8,%rsp
  40221e:	48 8b 05 ab 59 20 00 	mov    0x2059ab(%rip),%rax        # 607bd0 <dtor_idx.6302>
  402225:	48 c1 fb 03          	sar    $0x3,%rbx
  402229:	48 83 eb 01          	sub    $0x1,%rbx
  40222d:	48 39 d8             	cmp    %rbx,%rax
  402230:	73 24                	jae    402256 <__do_global_dtors_aux+0x56>
  402232:	66 0f 1f 44 00 00    	nopw   0x0(%rax,%rax,1)
  402238:	48 83 c0 01          	add    $0x1,%rax
  40223c:	48 89 05 8d 59 20 00 	mov    %rax,0x20598d(%rip)        # 607bd0 <dtor_idx.6302>
  402243:	ff 14 c5 a8 76 60 00 	callq  *0x6076a8(,%rax,8)
  40224a:	48 8b 05 7f 59 20 00 	mov    0x20597f(%rip),%rax        # 607bd0 <dtor_idx.6302>
  402251:	48 39 d8             	cmp    %rbx,%rax
  402254:	72 e2                	jb     402238 <__do_global_dtors_aux+0x38>
  402256:	e8 35 ff ff ff       	callq  402190 <deregister_tm_clones>
  40225b:	c6 05 66 59 20 00 01 	movb   $0x1,0x205966(%rip)        # 607bc8 <completed.6300>
  402262:	48 83 c4 08          	add    $0x8,%rsp
  402266:	5b                   	pop    %rbx
  402267:	5d                   	pop    %rbp
  402268:	c3                   	retq   
  402269:	0f 1f 80 00 00 00 00 	nopl   0x0(%rax)

0000000000402270 <frame_dummy>:
  402270:	48 83 3d 40 54 20 00 	cmpq   $0x0,0x205440(%rip)        # 6076b8 <__JCR_END__>
  402277:	00 
  402278:	74 1e                	je     402298 <frame_dummy+0x28>
  40227a:	b8 00 00 00 00       	mov    $0x0,%eax
  40227f:	48 85 c0             	test   %rax,%rax
  402282:	74 14                	je     402298 <frame_dummy+0x28>
  402284:	55                   	push   %rbp
  402285:	bf b8 76 60 00       	mov    $0x6076b8,%edi
  40228a:	48 89 e5             	mov    %rsp,%rbp
  40228d:	ff d0                	callq  *%rax
  40228f:	5d                   	pop    %rbp
  402290:	e9 2b ff ff ff       	jmpq   4021c0 <register_tm_clones>
  402295:	0f 1f 00             	nopl   (%rax)
  402298:	e9 23 ff ff ff       	jmpq   4021c0 <register_tm_clones>
  40229d:	90                   	nop
  40229e:	90                   	nop
  40229f:	90                   	nop

00000000004022a0 <main>:
  4022a0:	55                   	push   %rbp
  4022a1:	48 89 e5             	mov    %rsp,%rbp
  4022a4:	48 81 ec b0 00 00 00 	sub    $0xb0,%rsp
  4022ab:	89 bd 5c ff ff ff    	mov    %edi,-0xa4(%rbp)
  4022b1:	48 89 b5 50 ff ff ff 	mov    %rsi,-0xb0(%rbp)
  4022b8:	48 8b 95 50 ff ff ff 	mov    -0xb0(%rbp),%rdx
  4022bf:	8b 85 5c ff ff ff    	mov    -0xa4(%rbp),%eax
  4022c5:	be 02 00 00 00       	mov    $0x2,%esi
  4022ca:	89 c7                	mov    %eax,%edi
  4022cc:	e8 a6 12 00 00       	callq  403577 <check_argc>
  4022d1:	bf 10 00 00 00       	mov    $0x10,%edi
  4022d6:	e8 14 27 00 00       	callq  4049ef <Malloc>
  4022db:	48 89 05 f6 58 20 00 	mov    %rax,0x2058f6(%rip)        # 607bd8 <C>
  4022e2:	48 8b 05 ef 58 20 00 	mov    0x2058ef(%rip),%rax        # 607bd8 <C>
  4022e9:	48 89 c7             	mov    %rax,%rdi
  4022ec:	e8 b3 13 00 00       	callq  4036a4 <cache_init>
  4022f1:	48 8b 85 50 ff ff ff 	mov    -0xb0(%rbp),%rax
  4022f8:	48 83 c0 08          	add    $0x8,%rax
  4022fc:	48 8b 00             	mov    (%rax),%rax
  4022ff:	48 89 c7             	mov    %rax,%rdi
  402302:	e8 47 34 00 00       	callq  40574e <Open_listenfd>
  402307:	89 45 fc             	mov    %eax,-0x4(%rbp)
  40230a:	c7 85 6c ff ff ff 80 	movl   $0x80,-0x94(%rbp)
  402311:	00 00 00 
  402314:	bf 04 00 00 00       	mov    $0x4,%edi
  402319:	e8 d1 26 00 00       	callq  4049ef <Malloc>
  40231e:	48 89 45 f0          	mov    %rax,-0x10(%rbp)
  402322:	48 8d 95 6c ff ff ff 	lea    -0x94(%rbp),%rdx
  402329:	48 8d 8d 70 ff ff ff 	lea    -0x90(%rbp),%rcx
  402330:	8b 45 fc             	mov    -0x4(%rbp),%eax
  402333:	48 89 ce             	mov    %rcx,%rsi
  402336:	89 c7                	mov    %eax,%edi
  402338:	e8 33 2a 00 00       	callq  404d70 <Accept>
  40233d:	48 8b 55 f0          	mov    -0x10(%rbp),%rdx
  402341:	89 02                	mov    %eax,(%rdx)
  402343:	48 8b 55 f0          	mov    -0x10(%rbp),%rdx
  402347:	48 8d 85 60 ff ff ff 	lea    -0xa0(%rbp),%rax
  40234e:	48 89 d1             	mov    %rdx,%rcx
  402351:	ba 65 23 40 00       	mov    $0x402365,%edx
  402356:	be 00 00 00 00       	mov    $0x0,%esi
  40235b:	48 89 c7             	mov    %rax,%rdi
  40235e:	e8 5d 2c 00 00       	callq  404fc0 <Pthread_create>
  402363:	eb af                	jmp    402314 <main+0x74>

0000000000402365 <thread>:
  402365:	55                   	push   %rbp
  402366:	48 89 e5             	mov    %rsp,%rbp
  402369:	48 83 ec 20          	sub    $0x20,%rsp
  40236d:	48 89 7d e8          	mov    %rdi,-0x18(%rbp)
  402371:	48 8b 45 e8          	mov    -0x18(%rbp),%rax
  402375:	8b 00                	mov    (%rax),%eax
  402377:	89 45 fc             	mov    %eax,-0x4(%rbp)
  40237a:	48 8b 45 e8          	mov    -0x18(%rbp),%rax
  40237e:	48 89 c7             	mov    %rax,%rdi
  402381:	e8 18 27 00 00       	callq  404a9e <Free>
  402386:	e8 85 fa ff ff       	callq  401e10 <pthread_self@plt>
  40238b:	48 89 c7             	mov    %rax,%rdi
  40238e:	e8 e6 2c 00 00       	callq  405079 <Pthread_detach>
  402393:	8b 45 fc             	mov    -0x4(%rbp),%eax
  402396:	89 c7                	mov    %eax,%edi
  402398:	e8 0c 00 00 00       	callq  4023a9 <connect_req>
  40239d:	8b 45 fc             	mov    -0x4(%rbp),%eax
  4023a0:	89 c7                	mov    %eax,%edi
  4023a2:	e8 fb 23 00 00       	callq  4047a2 <Close>
  4023a7:	c9                   	leaveq 
  4023a8:	c3                   	retq   

00000000004023a9 <connect_req>:
  4023a9:	55                   	push   %rbp
  4023aa:	48 89 e5             	mov    %rsp,%rbp
  4023ad:	48 81 ec 40 60 00 00 	sub    $0x6040,%rsp
  4023b4:	89 bd cc 9f ff ff    	mov    %edi,-0x6034(%rbp)
  4023ba:	48 8d 85 f0 df ff ff 	lea    -0x2010(%rbp),%rax
  4023c1:	ba 00 20 00 00       	mov    $0x2000,%edx
  4023c6:	be 00 00 00 00       	mov    $0x0,%esi
  4023cb:	48 89 c7             	mov    %rax,%rdi
  4023ce:	e8 ed f7 ff ff       	callq  401bc0 <memset@plt>
  4023d3:	48 8d 85 e0 df ff ff 	lea    -0x2020(%rbp),%rax
  4023da:	ba 08 00 00 00       	mov    $0x8,%edx
  4023df:	be 00 00 00 00       	mov    $0x0,%esi
  4023e4:	48 89 c7             	mov    %rax,%rdi
  4023e7:	e8 d4 f7 ff ff       	callq  401bc0 <memset@plt>
  4023ec:	48 8d 85 e0 bf ff ff 	lea    -0x4020(%rbp),%rax
  4023f3:	ba 00 20 00 00       	mov    $0x2000,%edx
  4023f8:	be 00 00 00 00       	mov    $0x0,%esi
  4023fd:	48 89 c7             	mov    %rax,%rdi
  402400:	e8 bb f7 ff ff       	callq  401bc0 <memset@plt>
  402405:	48 8d bd e0 bf ff ff 	lea    -0x4020(%rbp),%rdi
  40240c:	48 8d 8d e0 df ff ff 	lea    -0x2020(%rbp),%rcx
  402413:	48 8d 95 f0 df ff ff 	lea    -0x2010(%rbp),%rdx
  40241a:	48 8d b5 d0 9f ff ff 	lea    -0x6030(%rbp),%rsi
  402421:	8b 85 cc 9f ff ff    	mov    -0x6034(%rbp),%eax
  402427:	49 89 f8             	mov    %rdi,%r8
  40242a:	89 c7                	mov    %eax,%edi
  40242c:	e8 db 01 00 00       	callq  40260c <parse_req>
  402431:	85 c0                	test   %eax,%eax
  402433:	0f 89 94 00 00 00    	jns    4024cd <connect_req+0x124>
  402439:	48 8d 85 f0 df ff ff 	lea    -0x2010(%rbp),%rax
  402440:	0f b6 00             	movzbl (%rax),%eax
  402443:	84 c0                	test   %al,%al
  402445:	75 17                	jne    40245e <connect_req+0xb5>
  402447:	48 8d 95 f0 df ff ff 	lea    -0x2010(%rbp),%rdx
  40244e:	8b 85 cc 9f ff ff    	mov    -0x6034(%rbp),%eax
  402454:	48 89 d6             	mov    %rdx,%rsi
  402457:	89 c7                	mov    %eax,%edi
  402459:	e8 0d 10 00 00       	callq  40346b <not_found>
  40245e:	48 8d 85 e0 df ff ff 	lea    -0x2020(%rbp),%rax
  402465:	0f b6 00             	movzbl (%rax),%eax
  402468:	84 c0                	test   %al,%al
  40246a:	75 17                	jne    402483 <connect_req+0xda>
  40246c:	48 8d 95 e0 df ff ff 	lea    -0x2020(%rbp),%rdx
  402473:	8b 85 cc 9f ff ff    	mov    -0x6034(%rbp),%eax
  402479:	48 89 d6             	mov    %rdx,%rsi
  40247c:	89 c7                	mov    %eax,%edi
  40247e:	e8 e8 0f 00 00       	callq  40346b <not_found>
  402483:	48 8d 85 e0 bf ff ff 	lea    -0x4020(%rbp),%rax
  40248a:	0f b6 00             	movzbl (%rax),%eax
  40248d:	84 c0                	test   %al,%al
  40248f:	75 17                	jne    4024a8 <connect_req+0xff>
  402491:	48 8d 95 e0 bf ff ff 	lea    -0x4020(%rbp),%rdx
  402498:	8b 85 cc 9f ff ff    	mov    -0x6034(%rbp),%eax
  40249e:	48 89 d6             	mov    %rdx,%rsi
  4024a1:	89 c7                	mov    %eax,%edi
  4024a3:	e8 c3 0f 00 00       	callq  40346b <not_found>
  4024a8:	48 8d 95 e0 bf ff ff 	lea    -0x4020(%rbp),%rdx
  4024af:	48 8d 8d e0 df ff ff 	lea    -0x2020(%rbp),%rcx
  4024b6:	48 8d 85 f0 df ff ff 	lea    -0x2010(%rbp),%rax
  4024bd:	48 89 ce             	mov    %rcx,%rsi
  4024c0:	48 89 c7             	mov    %rax,%rdi
  4024c3:	e8 24 0d 00 00       	callq  4031ec <flush_strs>
  4024c8:	e9 3d 01 00 00       	jmpq   40260a <connect_req+0x261>
  4024cd:	48 8b 05 04 57 20 00 	mov    0x205704(%rip),%rax        # 607bd8 <C>
  4024d4:	48 8d 95 e0 bf ff ff 	lea    -0x4020(%rbp),%rdx
  4024db:	48 8d 8d f0 df ff ff 	lea    -0x2010(%rbp),%rcx
  4024e2:	48 89 ce             	mov    %rcx,%rsi
  4024e5:	48 89 c7             	mov    %rax,%rdi
  4024e8:	e8 ac 12 00 00       	callq  403799 <in_cache>
  4024ed:	48 89 45 f8          	mov    %rax,-0x8(%rbp)
  4024f1:	48 83 7d f8 00       	cmpq   $0x0,-0x8(%rbp)
  4024f6:	74 68                	je     402560 <connect_req+0x1b7>
  4024f8:	48 8b 45 f8          	mov    -0x8(%rbp),%rax
  4024fc:	8b 00                	mov    (%rax),%eax
  4024fe:	89 c2                	mov    %eax,%edx
  402500:	48 8b 45 f8          	mov    -0x8(%rbp),%rax
  402504:	48 8b 48 10          	mov    0x10(%rax),%rcx
  402508:	8b 85 cc 9f ff ff    	mov    -0x6034(%rbp),%eax
  40250e:	48 89 ce             	mov    %rcx,%rsi
  402511:	89 c7                	mov    %eax,%edi
  402513:	e8 f5 2c 00 00       	callq  40520d <rio_writen>
  402518:	48 85 c0             	test   %rax,%rax
  40251b:	79 1e                	jns    40253b <connect_req+0x192>
  40251d:	48 8b 05 9c 56 20 00 	mov    0x20569c(%rip),%rax        # 607bc0 <stderr@@GLIBC_2.2.5>
  402524:	48 89 c1             	mov    %rax,%rcx
  402527:	ba 20 00 00 00       	mov    $0x20,%edx
  40252c:	be 01 00 00 00       	mov    $0x1,%esi
  402531:	bf b0 59 40 00       	mov    $0x4059b0,%edi
  402536:	e8 55 fb ff ff       	callq  402090 <fwrite@plt>
  40253b:	48 8d 95 e0 bf ff ff 	lea    -0x4020(%rbp),%rdx
  402542:	48 8d 8d e0 df ff ff 	lea    -0x2020(%rbp),%rcx
  402549:	48 8d 85 f0 df ff ff 	lea    -0x2010(%rbp),%rax
  402550:	48 89 ce             	mov    %rcx,%rsi
  402553:	48 89 c7             	mov    %rax,%rdi
  402556:	e8 91 0c 00 00       	callq  4031ec <flush_strs>
  40255b:	e9 aa 00 00 00       	jmpq   40260a <connect_req+0x261>
  402560:	48 8d 95 e0 df ff ff 	lea    -0x2020(%rbp),%rdx
  402567:	48 8d 85 f0 df ff ff 	lea    -0x2010(%rbp),%rax
  40256e:	48 89 d6             	mov    %rdx,%rsi
  402571:	48 89 c7             	mov    %rax,%rdi
  402574:	e8 86 31 00 00       	callq  4056ff <Open_clientfd>
  402579:	89 45 f4             	mov    %eax,-0xc(%rbp)
  40257c:	83 7d f4 00          	cmpl   $0x0,-0xc(%rbp)
  402580:	79 36                	jns    4025b8 <connect_req+0x20f>
  402582:	48 8d 95 f0 df ff ff 	lea    -0x2010(%rbp),%rdx
  402589:	8b 45 f4             	mov    -0xc(%rbp),%eax
  40258c:	48 89 d6             	mov    %rdx,%rsi
  40258f:	89 c7                	mov    %eax,%edi
  402591:	e8 d5 0d 00 00       	callq  40336b <bad_request>
  402596:	48 8d 95 e0 bf ff ff 	lea    -0x4020(%rbp),%rdx
  40259d:	48 8d 8d e0 df ff ff 	lea    -0x2020(%rbp),%rcx
  4025a4:	48 8d 85 f0 df ff ff 	lea    -0x2010(%rbp),%rax
  4025ab:	48 89 ce             	mov    %rcx,%rsi
  4025ae:	48 89 c7             	mov    %rax,%rdi
  4025b1:	e8 36 0c 00 00       	callq  4031ec <flush_strs>
  4025b6:	eb 52                	jmp    40260a <connect_req+0x261>
  4025b8:	48 8d bd e0 bf ff ff 	lea    -0x4020(%rbp),%rdi
  4025bf:	48 8d 8d f0 df ff ff 	lea    -0x2010(%rbp),%rcx
  4025c6:	48 8d 95 d0 9f ff ff 	lea    -0x6030(%rbp),%rdx
  4025cd:	8b b5 cc 9f ff ff    	mov    -0x6034(%rbp),%esi
  4025d3:	8b 45 f4             	mov    -0xc(%rbp),%eax
  4025d6:	49 89 f8             	mov    %rdi,%r8
  4025d9:	89 c7                	mov    %eax,%edi
  4025db:	e8 6d 06 00 00       	callq  402c4d <forward_req>
  4025e0:	48 8d 95 e0 bf ff ff 	lea    -0x4020(%rbp),%rdx
  4025e7:	48 8d 8d e0 df ff ff 	lea    -0x2020(%rbp),%rcx
  4025ee:	48 8d 85 f0 df ff ff 	lea    -0x2010(%rbp),%rax
  4025f5:	48 89 ce             	mov    %rcx,%rsi
  4025f8:	48 89 c7             	mov    %rax,%rdi
  4025fb:	e8 ec 0b 00 00       	callq  4031ec <flush_strs>
  402600:	8b 45 f4             	mov    -0xc(%rbp),%eax
  402603:	89 c7                	mov    %eax,%edi
  402605:	e8 98 21 00 00       	callq  4047a2 <Close>
  40260a:	c9                   	leaveq 
  40260b:	c3                   	retq   

000000000040260c <parse_req>:
  40260c:	55                   	push   %rbp
  40260d:	48 89 e5             	mov    %rsp,%rbp
  402610:	48 81 ec 70 80 00 00 	sub    $0x8070,%rsp
  402617:	89 bd bc 7f ff ff    	mov    %edi,-0x8044(%rbp)
  40261d:	48 89 b5 b0 7f ff ff 	mov    %rsi,-0x8050(%rbp)
  402624:	48 89 95 a8 7f ff ff 	mov    %rdx,-0x8058(%rbp)
  40262b:	48 89 8d a0 7f ff ff 	mov    %rcx,-0x8060(%rbp)
  402632:	4c 89 85 98 7f ff ff 	mov    %r8,-0x8068(%rbp)
  402639:	66 c7 85 d0 7f ff ff 	movw   $0x3a,-0x8030(%rbp)
  402640:	3a 00 
  402642:	66 c7 85 c0 7f ff ff 	movw   $0x2f,-0x8040(%rbp)
  402649:	2f 00 
  40264b:	8b 95 bc 7f ff ff    	mov    -0x8044(%rbp),%edx
  402651:	48 8b 85 b0 7f ff ff 	mov    -0x8050(%rbp),%rax
  402658:	89 d6                	mov    %edx,%esi
  40265a:	48 89 c7             	mov    %rax,%rdi
  40265d:	e8 d8 0f 00 00       	callq  40363a <Rio_readinitb>
  402662:	48 8d 8d e0 7f ff ff 	lea    -0x8020(%rbp),%rcx
  402669:	48 8b 85 b0 7f ff ff 	mov    -0x8050(%rbp),%rax
  402670:	ba 00 20 00 00       	mov    $0x2000,%edx
  402675:	48 89 ce             	mov    %rcx,%rsi
  402678:	48 89 c7             	mov    %rax,%rdi
  40267b:	e8 be 2d 00 00       	callq  40543e <rio_readlineb>
  402680:	48 85 c0             	test   %rax,%rax
  402683:	7f 30                	jg     4026b5 <parse_req+0xa9>
  402685:	48 8d 95 e0 7f ff ff 	lea    -0x8020(%rbp),%rdx
  40268c:	8b 85 bc 7f ff ff    	mov    -0x8044(%rbp),%eax
  402692:	48 89 d6             	mov    %rdx,%rsi
  402695:	89 c7                	mov    %eax,%edi
  402697:	e8 cf 0c 00 00       	callq  40336b <bad_request>
  40269c:	48 8d 85 e0 7f ff ff 	lea    -0x8020(%rbp),%rax
  4026a3:	48 89 c7             	mov    %rax,%rdi
  4026a6:	e8 16 0b 00 00       	callq  4031c1 <flush_str>
  4026ab:	b8 ff ff ff ff       	mov    $0xffffffff,%eax
  4026b0:	e9 3f 03 00 00       	jmpq   4029f4 <parse_req+0x3e8>
  4026b5:	48 8d b5 e0 9f ff ff 	lea    -0x6020(%rbp),%rsi
  4026bc:	48 8d 8d e0 bf ff ff 	lea    -0x4020(%rbp),%rcx
  4026c3:	48 8d 95 e0 df ff ff 	lea    -0x2020(%rbp),%rdx
  4026ca:	48 8d 85 e0 7f ff ff 	lea    -0x8020(%rbp),%rax
  4026d1:	49 89 f0             	mov    %rsi,%r8
  4026d4:	be d1 59 40 00       	mov    $0x4059d1,%esi
  4026d9:	48 89 c7             	mov    %rax,%rdi
  4026dc:	b8 00 00 00 00       	mov    $0x0,%eax
  4026e1:	e8 4a f5 ff ff       	callq  401c30 <__isoc99_sscanf@plt>
  4026e6:	48 8d 85 e0 7f ff ff 	lea    -0x8020(%rbp),%rax
  4026ed:	48 89 c7             	mov    %rax,%rdi
  4026f0:	e8 cc 0a 00 00       	callq  4031c1 <flush_str>
  4026f5:	48 8d 85 e0 df ff ff 	lea    -0x2020(%rbp),%rax
  4026fc:	be da 59 40 00       	mov    $0x4059da,%esi
  402701:	48 89 c7             	mov    %rax,%rdi
  402704:	e8 87 f8 ff ff       	callq  401f90 <strcmp@plt>
  402709:	85 c0                	test   %eax,%eax
  40270b:	75 19                	jne    402726 <parse_req+0x11a>
  40270d:	48 8d 85 e0 bf ff ff 	lea    -0x4020(%rbp),%rax
  402714:	be de 59 40 00       	mov    $0x4059de,%esi
  402719:	48 89 c7             	mov    %rax,%rdi
  40271c:	e8 2f f7 ff ff       	callq  401e50 <strstr@plt>
  402721:	48 85 c0             	test   %rax,%rax
  402724:	75 41                	jne    402767 <parse_req+0x15b>
  402726:	48 8d 95 e0 bf ff ff 	lea    -0x4020(%rbp),%rdx
  40272d:	8b 85 bc 7f ff ff    	mov    -0x8044(%rbp),%eax
  402733:	48 89 d6             	mov    %rdx,%rsi
  402736:	89 c7                	mov    %eax,%edi
  402738:	e8 2e 0c 00 00       	callq  40336b <bad_request>
  40273d:	48 8d 95 e0 9f ff ff 	lea    -0x6020(%rbp),%rdx
  402744:	48 8d 8d e0 bf ff ff 	lea    -0x4020(%rbp),%rcx
  40274b:	48 8d 85 e0 df ff ff 	lea    -0x2020(%rbp),%rax
  402752:	48 89 ce             	mov    %rcx,%rsi
  402755:	48 89 c7             	mov    %rax,%rdi
  402758:	e8 8f 0a 00 00       	callq  4031ec <flush_strs>
  40275d:	b8 ff ff ff ff       	mov    $0xffffffff,%eax
  402762:	e9 8d 02 00 00       	jmpq   4029f4 <parse_req+0x3e8>
  402767:	48 8d 85 e0 bf ff ff 	lea    -0x4020(%rbp),%rax
  40276e:	48 83 c0 07          	add    $0x7,%rax
  402772:	48 89 45 f8          	mov    %rax,-0x8(%rbp)
  402776:	48 8b 45 f8          	mov    -0x8(%rbp),%rax
  40277a:	be 3a 00 00 00       	mov    $0x3a,%esi
  40277f:	48 89 c7             	mov    %rax,%rdi
  402782:	e8 19 f8 ff ff       	callq  401fa0 <index@plt>
  402787:	48 89 45 e8          	mov    %rax,-0x18(%rbp)
  40278b:	48 83 7d e8 00       	cmpq   $0x0,-0x18(%rbp)
  402790:	0f 84 19 01 00 00    	je     4028af <parse_req+0x2a3>
  402796:	48 8d 95 d8 7f ff ff 	lea    -0x8028(%rbp),%rdx
  40279d:	48 8d 8d d0 7f ff ff 	lea    -0x8030(%rbp),%rcx
  4027a4:	48 8b 45 f8          	mov    -0x8(%rbp),%rax
  4027a8:	48 89 ce             	mov    %rcx,%rsi
  4027ab:	48 89 c7             	mov    %rax,%rdi
  4027ae:	e8 3d f6 ff ff       	callq  401df0 <strtok_r@plt>
  4027b3:	48 89 45 f0          	mov    %rax,-0x10(%rbp)
  4027b7:	48 8b 55 f0          	mov    -0x10(%rbp),%rdx
  4027bb:	48 8b 85 a8 7f ff ff 	mov    -0x8058(%rbp),%rax
  4027c2:	48 89 d6             	mov    %rdx,%rsi
  4027c5:	48 89 c7             	mov    %rax,%rdi
  4027c8:	e8 f3 f7 ff ff       	callq  401fc0 <strcpy@plt>
  4027cd:	48 8d 95 d8 7f ff ff 	lea    -0x8028(%rbp),%rdx
  4027d4:	48 8d 85 d0 7f ff ff 	lea    -0x8030(%rbp),%rax
  4027db:	48 89 c6             	mov    %rax,%rsi
  4027de:	bf 00 00 00 00       	mov    $0x0,%edi
  4027e3:	e8 08 f6 ff ff       	callq  401df0 <strtok_r@plt>
  4027e8:	48 89 45 f8          	mov    %rax,-0x8(%rbp)
  4027ec:	48 8d 95 d8 7f ff ff 	lea    -0x8028(%rbp),%rdx
  4027f3:	48 8d 8d c0 7f ff ff 	lea    -0x8040(%rbp),%rcx
  4027fa:	48 8b 45 f8          	mov    -0x8(%rbp),%rax
  4027fe:	48 89 ce             	mov    %rcx,%rsi
  402801:	48 89 c7             	mov    %rax,%rdi
  402804:	e8 e7 f5 ff ff       	callq  401df0 <strtok_r@plt>
  402809:	48 89 45 f0          	mov    %rax,-0x10(%rbp)
  40280d:	48 8b 55 f0          	mov    -0x10(%rbp),%rdx
  402811:	48 8b 85 a0 7f ff ff 	mov    -0x8060(%rbp),%rax
  402818:	48 89 d6             	mov    %rdx,%rsi
  40281b:	48 89 c7             	mov    %rax,%rdi
  40281e:	e8 9d f7 ff ff       	callq  401fc0 <strcpy@plt>
  402823:	eb 2f                	jmp    402854 <parse_req+0x248>
  402825:	48 8d 95 c0 7f ff ff 	lea    -0x8040(%rbp),%rdx
  40282c:	48 8b 85 98 7f ff ff 	mov    -0x8068(%rbp),%rax
  402833:	48 89 d6             	mov    %rdx,%rsi
  402836:	48 89 c7             	mov    %rax,%rdi
  402839:	e8 42 f6 ff ff       	callq  401e80 <strcat@plt>
  40283e:	48 8b 55 f0          	mov    -0x10(%rbp),%rdx
  402842:	48 8b 85 98 7f ff ff 	mov    -0x8068(%rbp),%rax
  402849:	48 89 d6             	mov    %rdx,%rsi
  40284c:	48 89 c7             	mov    %rax,%rdi
  40284f:	e8 2c f6 ff ff       	callq  401e80 <strcat@plt>
  402854:	48 8d 95 d8 7f ff ff 	lea    -0x8028(%rbp),%rdx
  40285b:	48 8d 85 c0 7f ff ff 	lea    -0x8040(%rbp),%rax
  402862:	48 89 c6             	mov    %rax,%rsi
  402865:	bf 00 00 00 00       	mov    $0x0,%edi
  40286a:	e8 81 f5 ff ff       	callq  401df0 <strtok_r@plt>
  40286f:	48 89 45 f0          	mov    %rax,-0x10(%rbp)
  402873:	48 83 7d f0 00       	cmpq   $0x0,-0x10(%rbp)
  402878:	75 ab                	jne    402825 <parse_req+0x219>
  40287a:	48 8b 85 98 7f ff ff 	mov    -0x8068(%rbp),%rax
  402881:	48 89 c7             	mov    %rax,%rdi
  402884:	e8 6d 01 00 00       	callq  4029f6 <is_dir>
  402889:	85 c0                	test   %eax,%eax
  40288b:	0f 84 18 01 00 00    	je     4029a9 <parse_req+0x39d>
  402891:	48 8d 95 c0 7f ff ff 	lea    -0x8040(%rbp),%rdx
  402898:	48 8b 85 98 7f ff ff 	mov    -0x8068(%rbp),%rax
  40289f:	48 89 d6             	mov    %rdx,%rsi
  4028a2:	48 89 c7             	mov    %rax,%rdi
  4028a5:	e8 d6 f5 ff ff       	callq  401e80 <strcat@plt>
  4028aa:	e9 fa 00 00 00       	jmpq   4029a9 <parse_req+0x39d>
  4028af:	48 8d 95 d8 7f ff ff 	lea    -0x8028(%rbp),%rdx
  4028b6:	48 8d 8d c0 7f ff ff 	lea    -0x8040(%rbp),%rcx
  4028bd:	48 8b 45 f8          	mov    -0x8(%rbp),%rax
  4028c1:	48 89 ce             	mov    %rcx,%rsi
  4028c4:	48 89 c7             	mov    %rax,%rdi
  4028c7:	e8 24 f5 ff ff       	callq  401df0 <strtok_r@plt>
  4028cc:	48 89 45 f0          	mov    %rax,-0x10(%rbp)
  4028d0:	48 8b 55 f0          	mov    -0x10(%rbp),%rdx
  4028d4:	48 8b 85 a8 7f ff ff 	mov    -0x8058(%rbp),%rax
  4028db:	48 89 d6             	mov    %rdx,%rsi
  4028de:	48 89 c7             	mov    %rax,%rdi
  4028e1:	e8 da f6 ff ff       	callq  401fc0 <strcpy@plt>
  4028e6:	eb 2f                	jmp    402917 <parse_req+0x30b>
  4028e8:	48 8d 95 c0 7f ff ff 	lea    -0x8040(%rbp),%rdx
  4028ef:	48 8b 85 98 7f ff ff 	mov    -0x8068(%rbp),%rax
  4028f6:	48 89 d6             	mov    %rdx,%rsi
  4028f9:	48 89 c7             	mov    %rax,%rdi
  4028fc:	e8 7f f5 ff ff       	callq  401e80 <strcat@plt>
  402901:	48 8b 55 f0          	mov    -0x10(%rbp),%rdx
  402905:	48 8b 85 98 7f ff ff 	mov    -0x8068(%rbp),%rax
  40290c:	48 89 d6             	mov    %rdx,%rsi
  40290f:	48 89 c7             	mov    %rax,%rdi
  402912:	e8 69 f5 ff ff       	callq  401e80 <strcat@plt>
  402917:	48 8d 95 d8 7f ff ff 	lea    -0x8028(%rbp),%rdx
  40291e:	48 8d 85 c0 7f ff ff 	lea    -0x8040(%rbp),%rax
  402925:	48 89 c6             	mov    %rax,%rsi
  402928:	bf 00 00 00 00       	mov    $0x0,%edi
  40292d:	e8 be f4 ff ff       	callq  401df0 <strtok_r@plt>
  402932:	48 89 45 f0          	mov    %rax,-0x10(%rbp)
  402936:	48 83 7d f0 00       	cmpq   $0x0,-0x10(%rbp)
  40293b:	75 ab                	jne    4028e8 <parse_req+0x2dc>
  40293d:	48 8b 85 98 7f ff ff 	mov    -0x8068(%rbp),%rax
  402944:	48 89 c7             	mov    %rax,%rdi
  402947:	e8 aa 00 00 00       	callq  4029f6 <is_dir>
  40294c:	85 c0                	test   %eax,%eax
  40294e:	74 19                	je     402969 <parse_req+0x35d>
  402950:	48 8d 95 c0 7f ff ff 	lea    -0x8040(%rbp),%rdx
  402957:	48 8b 85 98 7f ff ff 	mov    -0x8068(%rbp),%rax
  40295e:	48 89 d6             	mov    %rdx,%rsi
  402961:	48 89 c7             	mov    %rax,%rdi
  402964:	e8 17 f5 ff ff       	callq  401e80 <strcat@plt>
  402969:	48 8b 15 30 52 20 00 	mov    0x205230(%rip),%rdx        # 607ba0 <web_port>
  402970:	48 8b 85 a0 7f ff ff 	mov    -0x8060(%rbp),%rax
  402977:	48 89 d6             	mov    %rdx,%rsi
  40297a:	48 89 c7             	mov    %rax,%rdi
  40297d:	e8 3e f6 ff ff       	callq  401fc0 <strcpy@plt>
  402982:	48 8b 8d a0 7f ff ff 	mov    -0x8060(%rbp),%rcx
  402989:	48 8b 95 98 7f ff ff 	mov    -0x8068(%rbp),%rdx
  402990:	48 8b 85 a8 7f ff ff 	mov    -0x8058(%rbp),%rax
  402997:	48 89 c6             	mov    %rax,%rsi
  40299a:	bf e8 59 40 00       	mov    $0x4059e8,%edi
  40299f:	b8 00 00 00 00       	mov    $0x0,%eax
  4029a4:	e8 f7 f1 ff ff       	callq  401ba0 <printf@plt>
  4029a9:	48 8d 95 e0 9f ff ff 	lea    -0x6020(%rbp),%rdx
  4029b0:	48 8d 8d e0 bf ff ff 	lea    -0x4020(%rbp),%rcx
  4029b7:	48 8d 85 e0 df ff ff 	lea    -0x2020(%rbp),%rax
  4029be:	48 89 ce             	mov    %rcx,%rsi
  4029c1:	48 89 c7             	mov    %rax,%rdi
  4029c4:	e8 23 08 00 00       	callq  4031ec <flush_strs>
  4029c9:	48 8b 55 f0          	mov    -0x10(%rbp),%rdx
  4029cd:	48 8b 4d f8          	mov    -0x8(%rbp),%rcx
  4029d1:	48 8b 45 e8          	mov    -0x18(%rbp),%rax
  4029d5:	48 89 ce             	mov    %rcx,%rsi
  4029d8:	48 89 c7             	mov    %rax,%rdi
  4029db:	e8 0c 08 00 00       	callq  4031ec <flush_strs>
  4029e0:	48 8b 85 d8 7f ff ff 	mov    -0x8028(%rbp),%rax
  4029e7:	48 89 c7             	mov    %rax,%rdi
  4029ea:	e8 d2 07 00 00       	callq  4031c1 <flush_str>
  4029ef:	b8 00 00 00 00       	mov    $0x0,%eax
  4029f4:	c9                   	leaveq 
  4029f5:	c3                   	retq   

00000000004029f6 <is_dir>:
  4029f6:	55                   	push   %rbp
  4029f7:	48 89 e5             	mov    %rsp,%rbp
  4029fa:	48 83 ec 10          	sub    $0x10,%rsp
  4029fe:	48 89 7d f8          	mov    %rdi,-0x8(%rbp)
  402a02:	48 8b 45 f8          	mov    -0x8(%rbp),%rax
  402a06:	be 08 5a 40 00       	mov    $0x405a08,%esi
  402a0b:	48 89 c7             	mov    %rax,%rdi
  402a0e:	e8 3d f4 ff ff       	callq  401e50 <strstr@plt>
  402a13:	48 85 c0             	test   %rax,%rax
  402a16:	75 2c                	jne    402a44 <is_dir+0x4e>
  402a18:	48 8b 45 f8          	mov    -0x8(%rbp),%rax
  402a1c:	be 0e 5a 40 00       	mov    $0x405a0e,%esi
  402a21:	48 89 c7             	mov    %rax,%rdi
  402a24:	e8 27 f4 ff ff       	callq  401e50 <strstr@plt>
  402a29:	48 85 c0             	test   %rax,%rax
  402a2c:	75 16                	jne    402a44 <is_dir+0x4e>
  402a2e:	48 8b 45 f8          	mov    -0x8(%rbp),%rax
  402a32:	be 13 5a 40 00       	mov    $0x405a13,%esi
  402a37:	48 89 c7             	mov    %rax,%rdi
  402a3a:	e8 11 f4 ff ff       	callq  401e50 <strstr@plt>
  402a3f:	48 85 c0             	test   %rax,%rax
  402a42:	74 0a                	je     402a4e <is_dir+0x58>
  402a44:	b8 00 00 00 00       	mov    $0x0,%eax
  402a49:	e9 fd 01 00 00       	jmpq   402c4b <is_dir+0x255>
  402a4e:	48 8b 45 f8          	mov    -0x8(%rbp),%rax
  402a52:	be 18 5a 40 00       	mov    $0x405a18,%esi
  402a57:	48 89 c7             	mov    %rax,%rdi
  402a5a:	e8 f1 f3 ff ff       	callq  401e50 <strstr@plt>
  402a5f:	48 85 c0             	test   %rax,%rax
  402a62:	75 2c                	jne    402a90 <is_dir+0x9a>
  402a64:	48 8b 45 f8          	mov    -0x8(%rbp),%rax
  402a68:	be 1d 5a 40 00       	mov    $0x405a1d,%esi
  402a6d:	48 89 c7             	mov    %rax,%rdi
  402a70:	e8 db f3 ff ff       	callq  401e50 <strstr@plt>
  402a75:	48 85 c0             	test   %rax,%rax
  402a78:	75 16                	jne    402a90 <is_dir+0x9a>
  402a7a:	48 8b 45 f8          	mov    -0x8(%rbp),%rax
  402a7e:	be 22 5a 40 00       	mov    $0x405a22,%esi
  402a83:	48 89 c7             	mov    %rax,%rdi
  402a86:	e8 c5 f3 ff ff       	callq  401e50 <strstr@plt>
  402a8b:	48 85 c0             	test   %rax,%rax
  402a8e:	74 0a                	je     402a9a <is_dir+0xa4>
  402a90:	b8 00 00 00 00       	mov    $0x0,%eax
  402a95:	e9 b1 01 00 00       	jmpq   402c4b <is_dir+0x255>
  402a9a:	48 8b 45 f8          	mov    -0x8(%rbp),%rax
  402a9e:	be 27 5a 40 00       	mov    $0x405a27,%esi
  402aa3:	48 89 c7             	mov    %rax,%rdi
  402aa6:	e8 a5 f3 ff ff       	callq  401e50 <strstr@plt>
  402aab:	48 85 c0             	test   %rax,%rax
  402aae:	75 2c                	jne    402adc <is_dir+0xe6>
  402ab0:	48 8b 45 f8          	mov    -0x8(%rbp),%rax
  402ab4:	be 2a 5a 40 00       	mov    $0x405a2a,%esi
  402ab9:	48 89 c7             	mov    %rax,%rdi
  402abc:	e8 8f f3 ff ff       	callq  401e50 <strstr@plt>
  402ac1:	48 85 c0             	test   %rax,%rax
  402ac4:	75 16                	jne    402adc <is_dir+0xe6>
  402ac6:	48 8b 45 f8          	mov    -0x8(%rbp),%rax
  402aca:	be 2e 5a 40 00       	mov    $0x405a2e,%esi
  402acf:	48 89 c7             	mov    %rax,%rdi
  402ad2:	e8 79 f3 ff ff       	callq  401e50 <strstr@plt>
  402ad7:	48 85 c0             	test   %rax,%rax
  402ada:	74 0a                	je     402ae6 <is_dir+0xf0>
  402adc:	b8 00 00 00 00       	mov    $0x0,%eax
  402ae1:	e9 65 01 00 00       	jmpq   402c4b <is_dir+0x255>
  402ae6:	48 8b 45 f8          	mov    -0x8(%rbp),%rax
  402aea:	be 34 5a 40 00       	mov    $0x405a34,%esi
  402aef:	48 89 c7             	mov    %rax,%rdi
  402af2:	e8 59 f3 ff ff       	callq  401e50 <strstr@plt>
  402af7:	48 85 c0             	test   %rax,%rax
  402afa:	75 2c                	jne    402b28 <is_dir+0x132>
  402afc:	48 8b 45 f8          	mov    -0x8(%rbp),%rax
  402b00:	be 39 5a 40 00       	mov    $0x405a39,%esi
  402b05:	48 89 c7             	mov    %rax,%rdi
  402b08:	e8 43 f3 ff ff       	callq  401e50 <strstr@plt>
  402b0d:	48 85 c0             	test   %rax,%rax
  402b10:	75 16                	jne    402b28 <is_dir+0x132>
  402b12:	48 8b 45 f8          	mov    -0x8(%rbp),%rax
  402b16:	be 3e 5a 40 00       	mov    $0x405a3e,%esi
  402b1b:	48 89 c7             	mov    %rax,%rdi
  402b1e:	e8 2d f3 ff ff       	callq  401e50 <strstr@plt>
  402b23:	48 85 c0             	test   %rax,%rax
  402b26:	74 0a                	je     402b32 <is_dir+0x13c>
  402b28:	b8 00 00 00 00       	mov    $0x0,%eax
  402b2d:	e9 19 01 00 00       	jmpq   402c4b <is_dir+0x255>
  402b32:	48 8b 45 f8          	mov    -0x8(%rbp),%rax
  402b36:	be 43 5a 40 00       	mov    $0x405a43,%esi
  402b3b:	48 89 c7             	mov    %rax,%rdi
  402b3e:	e8 0d f3 ff ff       	callq  401e50 <strstr@plt>
  402b43:	48 85 c0             	test   %rax,%rax
  402b46:	75 2c                	jne    402b74 <is_dir+0x17e>
  402b48:	48 8b 45 f8          	mov    -0x8(%rbp),%rax
  402b4c:	be 48 5a 40 00       	mov    $0x405a48,%esi
  402b51:	48 89 c7             	mov    %rax,%rdi
  402b54:	e8 f7 f2 ff ff       	callq  401e50 <strstr@plt>
  402b59:	48 85 c0             	test   %rax,%rax
  402b5c:	75 16                	jne    402b74 <is_dir+0x17e>
  402b5e:	48 8b 45 f8          	mov    -0x8(%rbp),%rax
  402b62:	be 4c 5a 40 00       	mov    $0x405a4c,%esi
  402b67:	48 89 c7             	mov    %rax,%rdi
  402b6a:	e8 e1 f2 ff ff       	callq  401e50 <strstr@plt>
  402b6f:	48 85 c0             	test   %rax,%rax
  402b72:	74 0a                	je     402b7e <is_dir+0x188>
  402b74:	b8 00 00 00 00       	mov    $0x0,%eax
  402b79:	e9 cd 00 00 00       	jmpq   402c4b <is_dir+0x255>
  402b7e:	48 8b 45 f8          	mov    -0x8(%rbp),%rax
  402b82:	be 51 5a 40 00       	mov    $0x405a51,%esi
  402b87:	48 89 c7             	mov    %rax,%rdi
  402b8a:	e8 c1 f2 ff ff       	callq  401e50 <strstr@plt>
  402b8f:	48 85 c0             	test   %rax,%rax
  402b92:	75 2c                	jne    402bc0 <is_dir+0x1ca>
  402b94:	48 8b 45 f8          	mov    -0x8(%rbp),%rax
  402b98:	be 56 5a 40 00       	mov    $0x405a56,%esi
  402b9d:	48 89 c7             	mov    %rax,%rdi
  402ba0:	e8 ab f2 ff ff       	callq  401e50 <strstr@plt>
  402ba5:	48 85 c0             	test   %rax,%rax
  402ba8:	75 16                	jne    402bc0 <is_dir+0x1ca>
  402baa:	48 8b 45 f8          	mov    -0x8(%rbp),%rax
  402bae:	be 5b 5a 40 00       	mov    $0x405a5b,%esi
  402bb3:	48 89 c7             	mov    %rax,%rdi
  402bb6:	e8 95 f2 ff ff       	callq  401e50 <strstr@plt>
  402bbb:	48 85 c0             	test   %rax,%rax
  402bbe:	74 0a                	je     402bca <is_dir+0x1d4>
  402bc0:	b8 00 00 00 00       	mov    $0x0,%eax
  402bc5:	e9 81 00 00 00       	jmpq   402c4b <is_dir+0x255>
  402bca:	48 8b 45 f8          	mov    -0x8(%rbp),%rax
  402bce:	be 60 5a 40 00       	mov    $0x405a60,%esi
  402bd3:	48 89 c7             	mov    %rax,%rdi
  402bd6:	e8 75 f2 ff ff       	callq  401e50 <strstr@plt>
  402bdb:	48 85 c0             	test   %rax,%rax
  402bde:	75 2c                	jne    402c0c <is_dir+0x216>
  402be0:	48 8b 45 f8          	mov    -0x8(%rbp),%rax
  402be4:	be 65 5a 40 00       	mov    $0x405a65,%esi
  402be9:	48 89 c7             	mov    %rax,%rdi
  402bec:	e8 5f f2 ff ff       	callq  401e50 <strstr@plt>
  402bf1:	48 85 c0             	test   %rax,%rax
  402bf4:	75 16                	jne    402c0c <is_dir+0x216>
  402bf6:	48 8b 45 f8          	mov    -0x8(%rbp),%rax
  402bfa:	be 6a 5a 40 00       	mov    $0x405a6a,%esi
  402bff:	48 89 c7             	mov    %rax,%rdi
  402c02:	e8 49 f2 ff ff       	callq  401e50 <strstr@plt>
  402c07:	48 85 c0             	test   %rax,%rax
  402c0a:	74 07                	je     402c13 <is_dir+0x21d>
  402c0c:	b8 00 00 00 00       	mov    $0x0,%eax
  402c11:	eb 38                	jmp    402c4b <is_dir+0x255>
  402c13:	48 8b 45 f8          	mov    -0x8(%rbp),%rax
  402c17:	be 6f 5a 40 00       	mov    $0x405a6f,%esi
  402c1c:	48 89 c7             	mov    %rax,%rdi
  402c1f:	e8 2c f2 ff ff       	callq  401e50 <strstr@plt>
  402c24:	48 85 c0             	test   %rax,%rax
  402c27:	75 16                	jne    402c3f <is_dir+0x249>
  402c29:	48 8b 45 f8          	mov    -0x8(%rbp),%rax
  402c2d:	be 74 5a 40 00       	mov    $0x405a74,%esi
  402c32:	48 89 c7             	mov    %rax,%rdi
  402c35:	e8 16 f2 ff ff       	callq  401e50 <strstr@plt>
  402c3a:	48 85 c0             	test   %rax,%rax
  402c3d:	74 07                	je     402c46 <is_dir+0x250>
  402c3f:	b8 00 00 00 00       	mov    $0x0,%eax
  402c44:	eb 05                	jmp    402c4b <is_dir+0x255>
  402c46:	b8 01 00 00 00       	mov    $0x1,%eax
  402c4b:	c9                   	leaveq 
  402c4c:	c3                   	retq   

0000000000402c4d <forward_req>:
  402c4d:	55                   	push   %rbp
  402c4e:	48 89 e5             	mov    %rsp,%rbp
  402c51:	48 81 ec 50 30 02 00 	sub    $0x23050,%rsp
  402c58:	89 bd cc cf fd ff    	mov    %edi,-0x23034(%rbp)
  402c5e:	89 b5 c8 cf fd ff    	mov    %esi,-0x23038(%rbp)
  402c64:	48 89 95 c0 cf fd ff 	mov    %rdx,-0x23040(%rbp)
  402c6b:	48 89 8d b8 cf fd ff 	mov    %rcx,-0x23048(%rbp)
  402c72:	4c 89 85 b0 cf fd ff 	mov    %r8,-0x23050(%rbp)
  402c79:	48 c7 45 f0 00 00 00 	movq   $0x0,-0x10(%rbp)
  402c80:	00 
  402c81:	48 8d 85 e0 bf ff ff 	lea    -0x4020(%rbp),%rax
  402c88:	ba 00 40 00 00       	mov    $0x4000,%edx
  402c8d:	be 00 00 00 00       	mov    $0x0,%esi
  402c92:	48 89 c7             	mov    %rax,%rdi
  402c95:	e8 26 ef ff ff       	callq  401bc0 <memset@plt>
  402c9a:	48 8d 85 e0 9f ff ff 	lea    -0x6020(%rbp),%rax
  402ca1:	ba 00 20 00 00       	mov    $0x2000,%edx
  402ca6:	be 00 00 00 00       	mov    $0x0,%esi
  402cab:	48 89 c7             	mov    %rax,%rdi
  402cae:	e8 0d ef ff ff       	callq  401bc0 <memset@plt>
  402cb3:	48 c7 45 e8 00 00 00 	movq   $0x0,-0x18(%rbp)
  402cba:	00 
  402cbb:	48 c7 45 f8 00 00 00 	movq   $0x0,-0x8(%rbp)
  402cc2:	00 
  402cc3:	48 8b 95 b0 cf fd ff 	mov    -0x23050(%rbp),%rdx
  402cca:	48 8d 85 e0 bf ff ff 	lea    -0x4020(%rbp),%rax
  402cd1:	be 7a 5a 40 00       	mov    $0x405a7a,%esi
  402cd6:	48 89 c7             	mov    %rax,%rdi
  402cd9:	b8 00 00 00 00       	mov    $0x0,%eax
  402cde:	e8 ed f0 ff ff       	callq  401dd0 <sprintf@plt>
  402ce3:	c7 45 e4 00 00 00 00 	movl   $0x0,-0x1c(%rbp)
  402cea:	eb 7e                	jmp    402d6a <forward_req+0x11d>
  402cec:	48 83 7d f0 00       	cmpq   $0x0,-0x10(%rbp)
  402cf1:	79 14                	jns    402d07 <forward_req+0xba>
  402cf3:	48 8d 85 e0 9f ff ff 	lea    -0x6020(%rbp),%rax
  402cfa:	48 89 c7             	mov    %rax,%rdi
  402cfd:	e8 bf 04 00 00       	callq  4031c1 <flush_str>
  402d02:	e9 7d 03 00 00       	jmpq   403084 <forward_req+0x437>
  402d07:	48 8d 85 e0 9f ff ff 	lea    -0x6020(%rbp),%rax
  402d0e:	be a7 59 40 00       	mov    $0x4059a7,%esi
  402d13:	48 89 c7             	mov    %rax,%rdi
  402d16:	e8 75 f2 ff ff       	callq  401f90 <strcmp@plt>
  402d1b:	85 c0                	test   %eax,%eax
  402d1d:	75 02                	jne    402d21 <forward_req+0xd4>
  402d1f:	eb 76                	jmp    402d97 <forward_req+0x14a>
  402d21:	48 8d 85 e0 9f ff ff 	lea    -0x6020(%rbp),%rax
  402d28:	48 89 c7             	mov    %rax,%rdi
  402d2b:	e8 56 03 00 00       	callq  403086 <ignore_hdr>
  402d30:	85 c0                	test   %eax,%eax
  402d32:	75 27                	jne    402d5b <forward_req+0x10e>
  402d34:	48 8d 8d e0 9f ff ff 	lea    -0x6020(%rbp),%rcx
  402d3b:	48 8d 95 e0 bf ff ff 	lea    -0x4020(%rbp),%rdx
  402d42:	48 8d 85 e0 bf ff ff 	lea    -0x4020(%rbp),%rax
  402d49:	be 8c 5a 40 00       	mov    $0x405a8c,%esi
  402d4e:	48 89 c7             	mov    %rax,%rdi
  402d51:	b8 00 00 00 00       	mov    $0x0,%eax
  402d56:	e8 75 f0 ff ff       	callq  401dd0 <sprintf@plt>
  402d5b:	48 8d 85 e0 9f ff ff 	lea    -0x6020(%rbp),%rax
  402d62:	48 89 c7             	mov    %rax,%rdi
  402d65:	e8 57 04 00 00       	callq  4031c1 <flush_str>
  402d6a:	48 8d 8d e0 9f ff ff 	lea    -0x6020(%rbp),%rcx
  402d71:	48 8b 85 c0 cf fd ff 	mov    -0x23040(%rbp),%rax
  402d78:	ba 00 20 00 00       	mov    $0x2000,%edx
  402d7d:	48 89 ce             	mov    %rcx,%rsi
  402d80:	48 89 c7             	mov    %rax,%rdi
  402d83:	e8 b6 26 00 00       	callq  40543e <rio_readlineb>
  402d88:	48 89 45 f0          	mov    %rax,-0x10(%rbp)
  402d8c:	48 83 7d f0 00       	cmpq   $0x0,-0x10(%rbp)
  402d91:	0f 85 55 ff ff ff    	jne    402cec <forward_req+0x9f>
  402d97:	83 7d e4 00          	cmpl   $0x0,-0x1c(%rbp)
  402d9b:	75 27                	jne    402dc4 <forward_req+0x177>
  402d9d:	48 8b 8d b8 cf fd ff 	mov    -0x23048(%rbp),%rcx
  402da4:	48 8d 95 e0 bf ff ff 	lea    -0x4020(%rbp),%rdx
  402dab:	48 8d 85 e0 bf ff ff 	lea    -0x4020(%rbp),%rax
  402db2:	be 93 5a 40 00       	mov    $0x405a93,%esi
  402db7:	48 89 c7             	mov    %rax,%rdi
  402dba:	b8 00 00 00 00       	mov    $0x0,%eax
  402dbf:	e8 0c f0 ff ff       	callq  401dd0 <sprintf@plt>
  402dc4:	48 8b 0d a5 4d 20 00 	mov    0x204da5(%rip),%rcx        # 607b70 <user_agent_hdr>
  402dcb:	48 8d 95 e0 bf ff ff 	lea    -0x4020(%rbp),%rdx
  402dd2:	48 8d 85 e0 bf ff ff 	lea    -0x4020(%rbp),%rax
  402dd9:	be a0 5a 40 00       	mov    $0x405aa0,%esi
  402dde:	48 89 c7             	mov    %rax,%rdi
  402de1:	b8 00 00 00 00       	mov    $0x0,%eax
  402de6:	e8 e5 ef ff ff       	callq  401dd0 <sprintf@plt>
  402deb:	48 8b 0d 86 4d 20 00 	mov    0x204d86(%rip),%rcx        # 607b78 <accept_hdr>
  402df2:	48 8d 95 e0 bf ff ff 	lea    -0x4020(%rbp),%rdx
  402df9:	48 8d 85 e0 bf ff ff 	lea    -0x4020(%rbp),%rax
  402e00:	be a0 5a 40 00       	mov    $0x405aa0,%esi
  402e05:	48 89 c7             	mov    %rax,%rdi
  402e08:	b8 00 00 00 00       	mov    $0x0,%eax
  402e0d:	e8 be ef ff ff       	callq  401dd0 <sprintf@plt>
  402e12:	48 8b 0d 67 4d 20 00 	mov    0x204d67(%rip),%rcx        # 607b80 <accept_encoding_hdr>
  402e19:	48 8d 95 e0 bf ff ff 	lea    -0x4020(%rbp),%rdx
  402e20:	48 8d 85 e0 bf ff ff 	lea    -0x4020(%rbp),%rax
  402e27:	be a0 5a 40 00       	mov    $0x405aa0,%esi
  402e2c:	48 89 c7             	mov    %rax,%rdi
  402e2f:	b8 00 00 00 00       	mov    $0x0,%eax
  402e34:	e8 97 ef ff ff       	callq  401dd0 <sprintf@plt>
  402e39:	48 8b 0d 48 4d 20 00 	mov    0x204d48(%rip),%rcx        # 607b88 <conn_hdr>
  402e40:	48 8d 95 e0 bf ff ff 	lea    -0x4020(%rbp),%rdx
  402e47:	48 8d 85 e0 bf ff ff 	lea    -0x4020(%rbp),%rax
  402e4e:	be a0 5a 40 00       	mov    $0x405aa0,%esi
  402e53:	48 89 c7             	mov    %rax,%rdi
  402e56:	b8 00 00 00 00       	mov    $0x0,%eax
  402e5b:	e8 70 ef ff ff       	callq  401dd0 <sprintf@plt>
  402e60:	48 8b 0d 29 4d 20 00 	mov    0x204d29(%rip),%rcx        # 607b90 <pconn_hdr>
  402e67:	48 8d 95 e0 bf ff ff 	lea    -0x4020(%rbp),%rdx
  402e6e:	48 8d 85 e0 bf ff ff 	lea    -0x4020(%rbp),%rax
  402e75:	be a0 5a 40 00       	mov    $0x405aa0,%esi
  402e7a:	48 89 c7             	mov    %rax,%rdi
  402e7d:	b8 00 00 00 00       	mov    $0x0,%eax
  402e82:	e8 49 ef ff ff       	callq  401dd0 <sprintf@plt>
  402e87:	48 8b 0d 0a 4d 20 00 	mov    0x204d0a(%rip),%rcx        # 607b98 <end_hdr>
  402e8e:	48 8d 95 e0 bf ff ff 	lea    -0x4020(%rbp),%rdx
  402e95:	48 8d 85 e0 bf ff ff 	lea    -0x4020(%rbp),%rax
  402e9c:	be a0 5a 40 00       	mov    $0x405aa0,%esi
  402ea1:	48 89 c7             	mov    %rax,%rdi
  402ea4:	b8 00 00 00 00       	mov    $0x0,%eax
  402ea9:	e8 22 ef ff ff       	callq  401dd0 <sprintf@plt>
  402eae:	48 8d 85 e0 bf ff ff 	lea    -0x4020(%rbp),%rax
  402eb5:	48 89 c7             	mov    %rax,%rdi
  402eb8:	e8 93 ee ff ff       	callq  401d50 <strlen@plt>
  402ebd:	48 89 c2             	mov    %rax,%rdx
  402ec0:	48 8d 8d e0 bf ff ff 	lea    -0x4020(%rbp),%rcx
  402ec7:	8b 85 cc cf fd ff    	mov    -0x23034(%rbp),%eax
  402ecd:	48 89 ce             	mov    %rcx,%rsi
  402ed0:	89 c7                	mov    %eax,%edi
  402ed2:	e8 36 23 00 00       	callq  40520d <rio_writen>
  402ed7:	48 85 c0             	test   %rax,%rax
  402eda:	79 14                	jns    402ef0 <forward_req+0x2a3>
  402edc:	48 8d 85 e0 bf ff ff 	lea    -0x4020(%rbp),%rax
  402ee3:	48 89 c7             	mov    %rax,%rdi
  402ee6:	e8 d6 02 00 00       	callq  4031c1 <flush_str>
  402eeb:	e9 94 01 00 00       	jmpq   403084 <forward_req+0x437>
  402ef0:	8b 95 cc cf fd ff    	mov    -0x23034(%rbp),%edx
  402ef6:	48 8d 85 d0 5f ff ff 	lea    -0xa030(%rbp),%rax
  402efd:	89 d6                	mov    %edx,%esi
  402eff:	48 89 c7             	mov    %rax,%rdi
  402f02:	e8 33 07 00 00       	callq  40363a <Rio_readinitb>
  402f07:	c7 45 e0 00 00 00 00 	movl   $0x0,-0x20(%rbp)
  402f0e:	e9 ac 00 00 00       	jmpq   402fbf <forward_req+0x372>
  402f13:	48 83 7d e8 00       	cmpq   $0x0,-0x18(%rbp)
  402f18:	79 14                	jns    402f2e <forward_req+0x2e1>
  402f1a:	48 8d 85 e0 7f ff ff 	lea    -0x8020(%rbp),%rax
  402f21:	48 89 c7             	mov    %rax,%rdi
  402f24:	e8 98 02 00 00       	callq  4031c1 <flush_str>
  402f29:	e9 56 01 00 00       	jmpq   403084 <forward_req+0x437>
  402f2e:	48 8d 85 e0 7f ff ff 	lea    -0x8020(%rbp),%rax
  402f35:	be a7 59 40 00       	mov    $0x4059a7,%esi
  402f3a:	48 89 c7             	mov    %rax,%rdi
  402f3d:	e8 4e f0 ff ff       	callq  401f90 <strcmp@plt>
  402f42:	85 c0                	test   %eax,%eax
  402f44:	75 07                	jne    402f4d <forward_req+0x300>
  402f46:	c7 45 e0 01 00 00 00 	movl   $0x1,-0x20(%rbp)
  402f4d:	48 8b 45 e8          	mov    -0x18(%rbp),%rax
  402f51:	48 01 45 f8          	add    %rax,-0x8(%rbp)
  402f55:	48 8d 8d e0 7f ff ff 	lea    -0x8020(%rbp),%rcx
  402f5c:	48 8d 95 d0 cf fd ff 	lea    -0x23030(%rbp),%rdx
  402f63:	48 8d 85 d0 cf fd ff 	lea    -0x23030(%rbp),%rax
  402f6a:	be a0 5a 40 00       	mov    $0x405aa0,%esi
  402f6f:	48 89 c7             	mov    %rax,%rdi
  402f72:	b8 00 00 00 00       	mov    $0x0,%eax
  402f77:	e8 54 ee ff ff       	callq  401dd0 <sprintf@plt>
  402f7c:	48 8b 55 e8          	mov    -0x18(%rbp),%rdx
  402f80:	48 8d 8d e0 7f ff ff 	lea    -0x8020(%rbp),%rcx
  402f87:	8b 85 c8 cf fd ff    	mov    -0x23038(%rbp),%eax
  402f8d:	48 89 ce             	mov    %rcx,%rsi
  402f90:	89 c7                	mov    %eax,%edi
  402f92:	e8 76 22 00 00       	callq  40520d <rio_writen>
  402f97:	48 85 c0             	test   %rax,%rax
  402f9a:	79 14                	jns    402fb0 <forward_req+0x363>
  402f9c:	48 8d 85 e0 7f ff ff 	lea    -0x8020(%rbp),%rax
  402fa3:	48 89 c7             	mov    %rax,%rdi
  402fa6:	e8 16 02 00 00       	callq  4031c1 <flush_str>
  402fab:	e9 d4 00 00 00       	jmpq   403084 <forward_req+0x437>
  402fb0:	48 8d 85 e0 7f ff ff 	lea    -0x8020(%rbp),%rax
  402fb7:	48 89 c7             	mov    %rax,%rdi
  402fba:	e8 02 02 00 00       	callq  4031c1 <flush_str>
  402fbf:	48 8d 8d e0 7f ff ff 	lea    -0x8020(%rbp),%rcx
  402fc6:	48 8d 85 d0 5f ff ff 	lea    -0xa030(%rbp),%rax
  402fcd:	ba 00 20 00 00       	mov    $0x2000,%edx
  402fd2:	48 89 ce             	mov    %rcx,%rsi
  402fd5:	48 89 c7             	mov    %rax,%rdi
  402fd8:	e8 61 24 00 00       	callq  40543e <rio_readlineb>
  402fdd:	48 89 45 e8          	mov    %rax,-0x18(%rbp)
  402fe1:	48 83 7d e8 00       	cmpq   $0x0,-0x18(%rbp)
  402fe6:	0f 85 27 ff ff ff    	jne    402f13 <forward_req+0x2c6>
  402fec:	48 81 7d f8 00 90 01 	cmpq   $0x19000,-0x8(%rbp)
  402ff3:	00 
  402ff4:	77 4e                	ja     403044 <forward_req+0x3f7>
  402ff6:	48 8d 85 d0 cf fd ff 	lea    -0x23030(%rbp),%rax
  402ffd:	48 89 c7             	mov    %rax,%rdi
  403000:	b8 00 00 00 00       	mov    $0x0,%eax
  403005:	e8 e5 00 00 00       	callq  4030ef <not_error>
  40300a:	85 c0                	test   %eax,%eax
  40300c:	74 36                	je     403044 <forward_req+0x3f7>
  40300e:	48 8b 4d f8          	mov    -0x8(%rbp),%rcx
  403012:	48 8d 95 d0 cf fd ff 	lea    -0x23030(%rbp),%rdx
  403019:	48 8b b5 b0 cf fd ff 	mov    -0x23050(%rbp),%rsi
  403020:	48 8b 85 b8 cf fd ff 	mov    -0x23048(%rbp),%rax
  403027:	48 89 c7             	mov    %rax,%rdi
  40302a:	e8 bf 08 00 00       	callq  4038ee <make_line>
  40302f:	48 89 c2             	mov    %rax,%rdx
  403032:	48 8b 05 9f 4b 20 00 	mov    0x204b9f(%rip),%rax        # 607bd8 <C>
  403039:	48 89 d6             	mov    %rdx,%rsi
  40303c:	48 89 c7             	mov    %rax,%rdi
  40303f:	e8 3c 0a 00 00       	callq  403a80 <add_line>
  403044:	48 8d 95 e0 7f ff ff 	lea    -0x8020(%rbp),%rdx
  40304b:	48 8d 8d e0 9f ff ff 	lea    -0x6020(%rbp),%rcx
  403052:	48 8d 85 e0 bf ff ff 	lea    -0x4020(%rbp),%rax
  403059:	48 89 ce             	mov    %rcx,%rsi
  40305c:	48 89 c7             	mov    %rax,%rdi
  40305f:	e8 88 01 00 00       	callq  4031ec <flush_strs>
  403064:	48 8d 95 d0 cf fd ff 	lea    -0x23030(%rbp),%rdx
  40306b:	48 8b 8d b0 cf fd ff 	mov    -0x23050(%rbp),%rcx
  403072:	48 8b 85 b8 cf fd ff 	mov    -0x23048(%rbp),%rax
  403079:	48 89 ce             	mov    %rcx,%rsi
  40307c:	48 89 c7             	mov    %rax,%rdi
  40307f:	e8 68 01 00 00       	callq  4031ec <flush_strs>
  403084:	c9                   	leaveq 
  403085:	c3                   	retq   

0000000000403086 <ignore_hdr>:
  403086:	55                   	push   %rbp
  403087:	48 89 e5             	mov    %rsp,%rbp
  40308a:	48 83 ec 10          	sub    $0x10,%rsp
  40308e:	48 89 7d f8          	mov    %rdi,-0x8(%rbp)
  403092:	48 8b 45 f8          	mov    -0x8(%rbp),%rax
  403096:	be a5 5a 40 00       	mov    $0x405aa5,%esi
  40309b:	48 89 c7             	mov    %rax,%rdi
  40309e:	e8 ad ed ff ff       	callq  401e50 <strstr@plt>
  4030a3:	48 85 c0             	test   %rax,%rax
  4030a6:	74 07                	je     4030af <ignore_hdr+0x29>
  4030a8:	b8 01 00 00 00       	mov    $0x1,%eax
  4030ad:	eb 3e                	jmp    4030ed <ignore_hdr+0x67>
  4030af:	48 8b 45 f8          	mov    -0x8(%rbp),%rax
  4030b3:	be b6 5a 40 00       	mov    $0x405ab6,%esi
  4030b8:	48 89 c7             	mov    %rax,%rdi
  4030bb:	e8 90 ed ff ff       	callq  401e50 <strstr@plt>
  4030c0:	48 85 c0             	test   %rax,%rax
  4030c3:	74 07                	je     4030cc <ignore_hdr+0x46>
  4030c5:	b8 01 00 00 00       	mov    $0x1,%eax
  4030ca:	eb 21                	jmp    4030ed <ignore_hdr+0x67>
  4030cc:	48 8b 45 f8          	mov    -0x8(%rbp),%rax
  4030d0:	be a7 59 40 00       	mov    $0x4059a7,%esi
  4030d5:	48 89 c7             	mov    %rax,%rdi
  4030d8:	e8 b3 ee ff ff       	callq  401f90 <strcmp@plt>
  4030dd:	85 c0                	test   %eax,%eax
  4030df:	74 07                	je     4030e8 <ignore_hdr+0x62>
  4030e1:	b8 01 00 00 00       	mov    $0x1,%eax
  4030e6:	eb 05                	jmp    4030ed <ignore_hdr+0x67>
  4030e8:	b8 00 00 00 00       	mov    $0x0,%eax
  4030ed:	c9                   	leaveq 
  4030ee:	c3                   	retq   

00000000004030ef <not_error>:
  4030ef:	55                   	push   %rbp
  4030f0:	48 89 e5             	mov    %rsp,%rbp
  4030f3:	41 57                	push   %r15
  4030f5:	41 56                	push   %r14
  4030f7:	41 55                	push   %r13
  4030f9:	41 54                	push   %r12
  4030fb:	53                   	push   %rbx
  4030fc:	48 83 ec 38          	sub    $0x38,%rsp
  403100:	48 89 7d a8          	mov    %rdi,-0x58(%rbp)
  403104:	48 89 e0             	mov    %rsp,%rax
  403107:	48 89 c3             	mov    %rax,%rbx
  40310a:	48 8b 45 a8          	mov    -0x58(%rbp),%rax
  40310e:	48 89 c7             	mov    %rax,%rdi
  403111:	e8 3a ec ff ff       	callq  401d50 <strlen@plt>
  403116:	48 83 c0 01          	add    $0x1,%rax
  40311a:	48 89 45 c8          	mov    %rax,-0x38(%rbp)
  40311e:	48 8b 4d c8          	mov    -0x38(%rbp),%rcx
  403122:	48 89 c8             	mov    %rcx,%rax
  403125:	48 83 e8 01          	sub    $0x1,%rax
  403129:	48 89 45 c0          	mov    %rax,-0x40(%rbp)
  40312d:	49 89 ce             	mov    %rcx,%r14
  403130:	41 bf 00 00 00 00    	mov    $0x0,%r15d
  403136:	49 89 cc             	mov    %rcx,%r12
  403139:	41 bd 00 00 00 00    	mov    $0x0,%r13d
  40313f:	b8 10 00 00 00       	mov    $0x10,%eax
  403144:	48 83 e8 01          	sub    $0x1,%rax
  403148:	48 01 c8             	add    %rcx,%rax
  40314b:	be 10 00 00 00       	mov    $0x10,%esi
  403150:	ba 00 00 00 00       	mov    $0x0,%edx
  403155:	48 f7 f6             	div    %rsi
  403158:	48 6b c0 10          	imul   $0x10,%rax,%rax
  40315c:	48 29 c4             	sub    %rax,%rsp
  40315f:	48 89 e0             	mov    %rsp,%rax
  403162:	48 83 c0 00          	add    $0x0,%rax
  403166:	48 89 45 b8          	mov    %rax,-0x48(%rbp)
  40316a:	48 8b 45 b8          	mov    -0x48(%rbp),%rax
  40316e:	48 89 ca             	mov    %rcx,%rdx
  403171:	be 00 00 00 00       	mov    $0x0,%esi
  403176:	48 89 c7             	mov    %rax,%rdi
  403179:	e8 42 ea ff ff       	callq  401bc0 <memset@plt>
  40317e:	48 8b 45 b8          	mov    -0x48(%rbp),%rax
  403182:	48 8b 55 c8          	mov    -0x38(%rbp),%rdx
  403186:	48 8b 4d a8          	mov    -0x58(%rbp),%rcx
  40318a:	48 89 ce             	mov    %rcx,%rsi
  40318d:	48 89 c7             	mov    %rax,%rdi
  403190:	e8 4b ed ff ff       	callq  401ee0 <memcpy@plt>
  403195:	48 8b 45 b8          	mov    -0x48(%rbp),%rax
  403199:	be c1 5a 40 00       	mov    $0x405ac1,%esi
  40319e:	48 89 c7             	mov    %rax,%rdi
  4031a1:	e8 aa ec ff ff       	callq  401e50 <strstr@plt>
  4031a6:	48 85 c0             	test   %rax,%rax
  4031a9:	0f 95 c0             	setne  %al
  4031ac:	0f b6 c0             	movzbl %al,%eax
  4031af:	48 89 dc             	mov    %rbx,%rsp
  4031b2:	48 8d 65 d8          	lea    -0x28(%rbp),%rsp
  4031b6:	5b                   	pop    %rbx
  4031b7:	41 5c                	pop    %r12
  4031b9:	41 5d                	pop    %r13
  4031bb:	41 5e                	pop    %r14
  4031bd:	41 5f                	pop    %r15
  4031bf:	5d                   	pop    %rbp
  4031c0:	c3                   	retq   

00000000004031c1 <flush_str>:
  4031c1:	55                   	push   %rbp
  4031c2:	48 89 e5             	mov    %rsp,%rbp
  4031c5:	48 83 ec 10          	sub    $0x10,%rsp
  4031c9:	48 89 7d f8          	mov    %rdi,-0x8(%rbp)
  4031cd:	48 83 7d f8 00       	cmpq   $0x0,-0x8(%rbp)
  4031d2:	74 16                	je     4031ea <flush_str+0x29>
  4031d4:	48 8b 45 f8          	mov    -0x8(%rbp),%rax
  4031d8:	ba 08 00 00 00       	mov    $0x8,%edx
  4031dd:	be 00 00 00 00       	mov    $0x0,%esi
  4031e2:	48 89 c7             	mov    %rax,%rdi
  4031e5:	e8 d6 e9 ff ff       	callq  401bc0 <memset@plt>
  4031ea:	c9                   	leaveq 
  4031eb:	c3                   	retq   

00000000004031ec <flush_strs>:
  4031ec:	55                   	push   %rbp
  4031ed:	48 89 e5             	mov    %rsp,%rbp
  4031f0:	48 83 ec 20          	sub    $0x20,%rsp
  4031f4:	48 89 7d f8          	mov    %rdi,-0x8(%rbp)
  4031f8:	48 89 75 f0          	mov    %rsi,-0x10(%rbp)
  4031fc:	48 89 55 e8          	mov    %rdx,-0x18(%rbp)
  403200:	48 83 7d f8 00       	cmpq   $0x0,-0x8(%rbp)
  403205:	74 16                	je     40321d <flush_strs+0x31>
  403207:	48 8b 45 f8          	mov    -0x8(%rbp),%rax
  40320b:	ba 08 00 00 00       	mov    $0x8,%edx
  403210:	be 00 00 00 00       	mov    $0x0,%esi
  403215:	48 89 c7             	mov    %rax,%rdi
  403218:	e8 a3 e9 ff ff       	callq  401bc0 <memset@plt>
  40321d:	48 83 7d f0 00       	cmpq   $0x0,-0x10(%rbp)
  403222:	74 16                	je     40323a <flush_strs+0x4e>
  403224:	48 8b 45 f0          	mov    -0x10(%rbp),%rax
  403228:	ba 08 00 00 00       	mov    $0x8,%edx
  40322d:	be 00 00 00 00       	mov    $0x0,%esi
  403232:	48 89 c7             	mov    %rax,%rdi
  403235:	e8 86 e9 ff ff       	callq  401bc0 <memset@plt>
  40323a:	48 83 7d e8 00       	cmpq   $0x0,-0x18(%rbp)
  40323f:	74 16                	je     403257 <flush_strs+0x6b>
  403241:	48 8b 45 e8          	mov    -0x18(%rbp),%rax
  403245:	ba 08 00 00 00       	mov    $0x8,%edx
  40324a:	be 00 00 00 00       	mov    $0x0,%esi
  40324f:	48 89 c7             	mov    %rax,%rdi
  403252:	e8 69 e9 ff ff       	callq  401bc0 <memset@plt>
  403257:	c9                   	leaveq 
  403258:	c3                   	retq   

0000000000403259 <bad_method>:
  403259:	55                   	push   %rbp
  40325a:	48 89 e5             	mov    %rsp,%rbp
  40325d:	53                   	push   %rbx
  40325e:	48 81 ec 18 20 00 00 	sub    $0x2018,%rsp
  403265:	89 bd ec df ff ff    	mov    %edi,-0x2014(%rbp)
  40326b:	48 89 b5 e0 df ff ff 	mov    %rsi,-0x2020(%rbp)
  403272:	48 8d 85 f0 df ff ff 	lea    -0x2010(%rbp),%rax
  403279:	48 bb 3c 68 74 6d 6c 	mov    $0x743c3e6c6d74683c,%rbx
  403280:	3e 3c 74 
  403283:	48 89 18             	mov    %rbx,(%rax)
  403286:	48 bb 69 74 6c 65 3e 	mov    $0x7272453e656c7469,%rbx
  40328d:	45 72 72 
  403290:	48 89 58 08          	mov    %rbx,0x8(%rax)
  403294:	48 be 6f 72 20 35 30 	mov    $0x203a31303520726f,%rsi
  40329b:	31 3a 20 
  40329e:	48 89 70 10          	mov    %rsi,0x10(%rax)
  4032a2:	48 bb 6d 65 74 68 6f 	mov    $0x6e20646f6874656d,%rbx
  4032a9:	64 20 6e 
  4032ac:	48 89 58 18          	mov    %rbx,0x18(%rax)
  4032b0:	48 b9 6f 74 20 73 75 	mov    $0x6f7070757320746f,%rcx
  4032b7:	70 70 6f 
  4032ba:	48 89 48 20          	mov    %rcx,0x20(%rax)
  4032be:	48 be 72 74 65 64 3c 	mov    $0x69742f3c64657472,%rsi
  4032c5:	2f 74 69 
  4032c8:	48 89 70 28          	mov    %rsi,0x28(%rax)
  4032cc:	c7 40 30 74 6c 65 3e 	movl   $0x3e656c74,0x30(%rax)
  4032d3:	66 c7 40 34 0d 0a    	movw   $0xa0d,0x34(%rax)
  4032d9:	c6 40 36 00          	movb   $0x0,0x36(%rax)
  4032dd:	48 8d 95 f0 df ff ff 	lea    -0x2010(%rbp),%rdx
  4032e4:	48 8d 85 f0 df ff ff 	lea    -0x2010(%rbp),%rax
  4032eb:	be c8 5a 40 00       	mov    $0x405ac8,%esi
  4032f0:	48 89 c7             	mov    %rax,%rdi
  4032f3:	b8 00 00 00 00       	mov    $0x0,%eax
  4032f8:	e8 d3 ea ff ff       	callq  401dd0 <sprintf@plt>
  4032fd:	48 8b 8d e0 df ff ff 	mov    -0x2020(%rbp),%rcx
  403304:	48 8d 95 f0 df ff ff 	lea    -0x2010(%rbp),%rdx
  40330b:	48 8d 85 f0 df ff ff 	lea    -0x2010(%rbp),%rax
  403312:	be 00 5b 40 00       	mov    $0x405b00,%esi
  403317:	48 89 c7             	mov    %rax,%rdi
  40331a:	b8 00 00 00 00       	mov    $0x0,%eax
  40331f:	e8 ac ea ff ff       	callq  401dd0 <sprintf@plt>
  403324:	48 8d 85 f0 df ff ff 	lea    -0x2010(%rbp),%rax
  40332b:	48 89 c7             	mov    %rax,%rdi
  40332e:	e8 1d ea ff ff       	callq  401d50 <strlen@plt>
  403333:	48 89 c2             	mov    %rax,%rdx
  403336:	48 8d 8d f0 df ff ff 	lea    -0x2010(%rbp),%rcx
  40333d:	8b 85 ec df ff ff    	mov    -0x2014(%rbp),%eax
  403343:	48 89 ce             	mov    %rcx,%rsi
  403346:	89 c7                	mov    %eax,%edi
  403348:	e8 c0 1e 00 00       	callq  40520d <rio_writen>
  40334d:	48 85 c0             	test   %rax,%rax
  403350:	79 0f                	jns    403361 <bad_method+0x108>
  403352:	48 8d 85 f0 df ff ff 	lea    -0x2010(%rbp),%rax
  403359:	48 89 c7             	mov    %rax,%rdi
  40335c:	e8 60 fe ff ff       	callq  4031c1 <flush_str>
  403361:	48 81 c4 18 20 00 00 	add    $0x2018,%rsp
  403368:	5b                   	pop    %rbx
  403369:	5d                   	pop    %rbp
  40336a:	c3                   	retq   

000000000040336b <bad_request>:
  40336b:	55                   	push   %rbp
  40336c:	48 89 e5             	mov    %rsp,%rbp
  40336f:	53                   	push   %rbx
  403370:	48 81 ec 18 20 00 00 	sub    $0x2018,%rsp
  403377:	89 bd ec df ff ff    	mov    %edi,-0x2014(%rbp)
  40337d:	48 89 b5 e0 df ff ff 	mov    %rsi,-0x2020(%rbp)
  403384:	48 8d 85 f0 df ff ff 	lea    -0x2010(%rbp),%rax
  40338b:	48 bb 3c 68 74 6d 6c 	mov    $0x743c3e6c6d74683c,%rbx
  403392:	3e 3c 74 
  403395:	48 89 18             	mov    %rbx,(%rax)
  403398:	48 bb 69 74 6c 65 3e 	mov    $0x7272453e656c7469,%rbx
  40339f:	45 72 72 
  4033a2:	48 89 58 08          	mov    %rbx,0x8(%rax)
  4033a6:	48 be 6f 72 20 34 30 	mov    $0x203a30303420726f,%rsi
  4033ad:	30 3a 20 
  4033b0:	48 89 70 10          	mov    %rsi,0x10(%rax)
  4033b4:	48 bb 62 61 64 20 72 	mov    $0x7571657220646162,%rbx
  4033bb:	65 71 75 
  4033be:	48 89 58 18          	mov    %rbx,0x18(%rax)
  4033c2:	48 b9 65 73 74 3c 2f 	mov    $0x7469742f3c747365,%rcx
  4033c9:	74 69 74 
  4033cc:	48 89 48 20          	mov    %rcx,0x20(%rax)
  4033d0:	c7 40 28 6c 65 3e 0d 	movl   $0xd3e656c,0x28(%rax)
  4033d7:	66 c7 40 2c 0a 00    	movw   $0xa,0x2c(%rax)
  4033dd:	48 8d 95 f0 df ff ff 	lea    -0x2010(%rbp),%rdx
  4033e4:	48 8d 85 f0 df ff ff 	lea    -0x2010(%rbp),%rax
  4033eb:	be 38 5b 40 00       	mov    $0x405b38,%esi
  4033f0:	48 89 c7             	mov    %rax,%rdi
  4033f3:	b8 00 00 00 00       	mov    $0x0,%eax
  4033f8:	e8 d3 e9 ff ff       	callq  401dd0 <sprintf@plt>
  4033fd:	48 8b 8d e0 df ff ff 	mov    -0x2020(%rbp),%rcx
  403404:	48 8d 95 f0 df ff ff 	lea    -0x2010(%rbp),%rdx
  40340b:	48 8d 85 f0 df ff ff 	lea    -0x2010(%rbp),%rax
  403412:	be 00 5b 40 00       	mov    $0x405b00,%esi
  403417:	48 89 c7             	mov    %rax,%rdi
  40341a:	b8 00 00 00 00       	mov    $0x0,%eax
  40341f:	e8 ac e9 ff ff       	callq  401dd0 <sprintf@plt>
  403424:	48 8d 85 f0 df ff ff 	lea    -0x2010(%rbp),%rax
  40342b:	48 89 c7             	mov    %rax,%rdi
  40342e:	e8 1d e9 ff ff       	callq  401d50 <strlen@plt>
  403433:	48 89 c2             	mov    %rax,%rdx
  403436:	48 8d 8d f0 df ff ff 	lea    -0x2010(%rbp),%rcx
  40343d:	8b 85 ec df ff ff    	mov    -0x2014(%rbp),%eax
  403443:	48 89 ce             	mov    %rcx,%rsi
  403446:	89 c7                	mov    %eax,%edi
  403448:	e8 c0 1d 00 00       	callq  40520d <rio_writen>
  40344d:	48 85 c0             	test   %rax,%rax
  403450:	79 0f                	jns    403461 <bad_request+0xf6>
  403452:	48 8d 85 f0 df ff ff 	lea    -0x2010(%rbp),%rax
  403459:	48 89 c7             	mov    %rax,%rdi
  40345c:	e8 60 fd ff ff       	callq  4031c1 <flush_str>
  403461:	48 81 c4 18 20 00 00 	add    $0x2018,%rsp
  403468:	5b                   	pop    %rbx
  403469:	5d                   	pop    %rbp
  40346a:	c3                   	retq   

000000000040346b <not_found>:
  40346b:	55                   	push   %rbp
  40346c:	48 89 e5             	mov    %rsp,%rbp
  40346f:	53                   	push   %rbx
  403470:	48 81 ec 18 20 00 00 	sub    $0x2018,%rsp
  403477:	89 bd ec df ff ff    	mov    %edi,-0x2014(%rbp)
  40347d:	48 89 b5 e0 df ff ff 	mov    %rsi,-0x2020(%rbp)
  403484:	48 8d 85 f0 df ff ff 	lea    -0x2010(%rbp),%rax
  40348b:	48 bb 3c 68 74 6d 6c 	mov    $0x743c3e6c6d74683c,%rbx
  403492:	3e 3c 74 
  403495:	48 89 18             	mov    %rbx,(%rax)
  403498:	48 bb 69 74 6c 65 3e 	mov    $0x7272453e656c7469,%rbx
  40349f:	45 72 72 
  4034a2:	48 89 58 08          	mov    %rbx,0x8(%rax)
  4034a6:	48 be 6f 72 20 34 30 	mov    $0x203a34303420726f,%rsi
  4034ad:	34 3a 20 
  4034b0:	48 89 70 10          	mov    %rsi,0x10(%rax)
  4034b4:	48 bb 66 69 6c 65 20 	mov    $0x746f6e20656c6966,%rbx
  4034bb:	6e 6f 74 
  4034be:	48 89 58 18          	mov    %rbx,0x18(%rax)
  4034c2:	48 b9 20 66 6f 75 6e 	mov    $0x2f3c646e756f6620,%rcx
  4034c9:	64 3c 2f 
  4034cc:	48 89 48 20          	mov    %rcx,0x20(%rax)
  4034d0:	48 be 74 69 74 65 3e 	mov    $0xa0d3e65746974,%rsi
  4034d7:	0d 0a 00 
  4034da:	48 89 70 28          	mov    %rsi,0x28(%rax)
  4034de:	48 8b 8d e0 df ff ff 	mov    -0x2020(%rbp),%rcx
  4034e5:	48 8d 95 f0 df ff ff 	lea    -0x2010(%rbp),%rdx
  4034ec:	48 8d 85 f0 df ff ff 	lea    -0x2010(%rbp),%rax
  4034f3:	be 68 5b 40 00       	mov    $0x405b68,%esi
  4034f8:	48 89 c7             	mov    %rax,%rdi
  4034fb:	b8 00 00 00 00       	mov    $0x0,%eax
  403500:	e8 cb e8 ff ff       	callq  401dd0 <sprintf@plt>
  403505:	48 8d 85 f0 df ff ff 	lea    -0x2010(%rbp),%rax
  40350c:	48 89 c7             	mov    %rax,%rdi
  40350f:	e8 3c e8 ff ff       	callq  401d50 <strlen@plt>
  403514:	48 89 c2             	mov    %rax,%rdx
  403517:	48 8d 8d f0 df ff ff 	lea    -0x2010(%rbp),%rcx
  40351e:	8b 85 ec df ff ff    	mov    -0x2014(%rbp),%eax
  403524:	48 89 ce             	mov    %rcx,%rsi
  403527:	89 c7                	mov    %eax,%edi
  403529:	e8 df 1c 00 00       	callq  40520d <rio_writen>
  40352e:	48 85 c0             	test   %rax,%rax
  403531:	79 0f                	jns    403542 <not_found+0xd7>
  403533:	48 8d 85 f0 df ff ff 	lea    -0x2010(%rbp),%rax
  40353a:	48 89 c7             	mov    %rax,%rdi
  40353d:	e8 7f fc ff ff       	callq  4031c1 <flush_str>
  403542:	48 81 c4 18 20 00 00 	add    $0x2018,%rsp
  403549:	5b                   	pop    %rbx
  40354a:	5d                   	pop    %rbp
  40354b:	c3                   	retq   

000000000040354c <proxy_error>:
  40354c:	55                   	push   %rbp
  40354d:	48 89 e5             	mov    %rsp,%rbp
  403550:	48 83 ec 10          	sub    $0x10,%rsp
  403554:	48 89 7d f8          	mov    %rdi,-0x8(%rbp)
  403558:	48 8b 05 61 46 20 00 	mov    0x204661(%rip),%rax        # 607bc0 <stderr@@GLIBC_2.2.5>
  40355f:	48 8b 55 f8          	mov    -0x8(%rbp),%rdx
  403563:	be 94 5b 40 00       	mov    $0x405b94,%esi
  403568:	48 89 c7             	mov    %rax,%rdi
  40356b:	b8 00 00 00 00       	mov    $0x0,%eax
  403570:	e8 6b eb ff ff       	callq  4020e0 <fprintf@plt>
  403575:	c9                   	leaveq 
  403576:	c3                   	retq   

0000000000403577 <check_argc>:
  403577:	55                   	push   %rbp
  403578:	48 89 e5             	mov    %rsp,%rbp
  40357b:	48 83 ec 10          	sub    $0x10,%rsp
  40357f:	89 7d fc             	mov    %edi,-0x4(%rbp)
  403582:	89 75 f8             	mov    %esi,-0x8(%rbp)
  403585:	48 89 55 f0          	mov    %rdx,-0x10(%rbp)
  403589:	8b 45 fc             	mov    -0x4(%rbp),%eax
  40358c:	3b 45 f8             	cmp    -0x8(%rbp),%eax
  40358f:	74 2a                	je     4035bb <check_argc+0x44>
  403591:	48 8b 45 f0          	mov    -0x10(%rbp),%rax
  403595:	48 8b 10             	mov    (%rax),%rdx
  403598:	48 8b 05 21 46 20 00 	mov    0x204621(%rip),%rax        # 607bc0 <stderr@@GLIBC_2.2.5>
  40359f:	be ae 5b 40 00       	mov    $0x405bae,%esi
  4035a4:	48 89 c7             	mov    %rax,%rdi
  4035a7:	b8 00 00 00 00       	mov    $0x0,%eax
  4035ac:	e8 2f eb ff ff       	callq  4020e0 <fprintf@plt>
  4035b1:	bf 01 00 00 00       	mov    $0x1,%edi
  4035b6:	e8 95 e6 ff ff       	callq  401c50 <exit@plt>
  4035bb:	c9                   	leaveq 
  4035bc:	c3                   	retq   

00000000004035bd <Rio_readn>:
  4035bd:	55                   	push   %rbp
  4035be:	48 89 e5             	mov    %rsp,%rbp
  4035c1:	48 83 ec 30          	sub    $0x30,%rsp
  4035c5:	89 7d ec             	mov    %edi,-0x14(%rbp)
  4035c8:	48 89 75 e0          	mov    %rsi,-0x20(%rbp)
  4035cc:	48 89 55 d8          	mov    %rdx,-0x28(%rbp)
  4035d0:	48 8b 55 d8          	mov    -0x28(%rbp),%rdx
  4035d4:	48 8b 4d e0          	mov    -0x20(%rbp),%rcx
  4035d8:	8b 45 ec             	mov    -0x14(%rbp),%eax
  4035db:	48 89 ce             	mov    %rcx,%rsi
  4035de:	89 c7                	mov    %eax,%edi
  4035e0:	e8 94 1b 00 00       	callq  405179 <rio_readn>
  4035e5:	48 89 45 f8          	mov    %rax,-0x8(%rbp)
  4035e9:	48 83 7d f8 00       	cmpq   $0x0,-0x8(%rbp)
  4035ee:	79 0a                	jns    4035fa <Rio_readn+0x3d>
  4035f0:	bf c0 5b 40 00       	mov    $0x405bc0,%edi
  4035f5:	e8 52 ff ff ff       	callq  40354c <proxy_error>
  4035fa:	48 8b 45 f8          	mov    -0x8(%rbp),%rax
  4035fe:	c9                   	leaveq 
  4035ff:	c3                   	retq   

0000000000403600 <Rio_writen>:
  403600:	55                   	push   %rbp
  403601:	48 89 e5             	mov    %rsp,%rbp
  403604:	48 83 ec 20          	sub    $0x20,%rsp
  403608:	89 7d fc             	mov    %edi,-0x4(%rbp)
  40360b:	48 89 75 f0          	mov    %rsi,-0x10(%rbp)
  40360f:	48 89 55 e8          	mov    %rdx,-0x18(%rbp)
  403613:	48 8b 55 e8          	mov    -0x18(%rbp),%rdx
  403617:	48 8b 4d f0          	mov    -0x10(%rbp),%rcx
  40361b:	8b 45 fc             	mov    -0x4(%rbp),%eax
  40361e:	48 89 ce             	mov    %rcx,%rsi
  403621:	89 c7                	mov    %eax,%edi
  403623:	e8 e5 1b 00 00       	callq  40520d <rio_writen>
  403628:	48 3b 45 e8          	cmp    -0x18(%rbp),%rax
  40362c:	74 0a                	je     403638 <Rio_writen+0x38>
  40362e:	bf d0 5b 40 00       	mov    $0x405bd0,%edi
  403633:	e8 14 ff ff ff       	callq  40354c <proxy_error>
  403638:	c9                   	leaveq 
  403639:	c3                   	retq   

000000000040363a <Rio_readinitb>:
  40363a:	55                   	push   %rbp
  40363b:	48 89 e5             	mov    %rsp,%rbp
  40363e:	48 83 ec 10          	sub    $0x10,%rsp
  403642:	48 89 7d f8          	mov    %rdi,-0x8(%rbp)
  403646:	89 75 f4             	mov    %esi,-0xc(%rbp)
  403649:	8b 55 f4             	mov    -0xc(%rbp),%edx
  40364c:	48 8b 45 f8          	mov    -0x8(%rbp),%rax
  403650:	89 d6                	mov    %edx,%esi
  403652:	48 89 c7             	mov    %rax,%rdi
  403655:	e8 32 1d 00 00       	callq  40538c <rio_readinitb>
  40365a:	c9                   	leaveq 
  40365b:	c3                   	retq   

000000000040365c <Rio_readnb>:
  40365c:	55                   	push   %rbp
  40365d:	48 89 e5             	mov    %rsp,%rbp
  403660:	48 83 ec 30          	sub    $0x30,%rsp
  403664:	48 89 7d e8          	mov    %rdi,-0x18(%rbp)
  403668:	48 89 75 e0          	mov    %rsi,-0x20(%rbp)
  40366c:	48 89 55 d8          	mov    %rdx,-0x28(%rbp)
  403670:	48 8b 55 d8          	mov    -0x28(%rbp),%rdx
  403674:	48 8b 4d e0          	mov    -0x20(%rbp),%rcx
  403678:	48 8b 45 e8          	mov    -0x18(%rbp),%rax
  40367c:	48 89 ce             	mov    %rcx,%rsi
  40367f:	48 89 c7             	mov    %rax,%rdi
  403682:	e8 36 1d 00 00       	callq  4053bd <rio_readnb>
  403687:	48 89 45 f8          	mov    %rax,-0x8(%rbp)
  40368b:	48 83 7d f8 00       	cmpq   $0x0,-0x8(%rbp)
  403690:	79 0a                	jns    40369c <Rio_readnb+0x40>
  403692:	bf e1 5b 40 00       	mov    $0x405be1,%edi
  403697:	e8 b0 fe ff ff       	callq  40354c <proxy_error>
  40369c:	48 8b 45 f8          	mov    -0x8(%rbp),%rax
  4036a0:	c9                   	leaveq 
  4036a1:	c3                   	retq   
  4036a2:	90                   	nop
  4036a3:	90                   	nop

00000000004036a4 <cache_init>:
  4036a4:	55                   	push   %rbp
  4036a5:	48 89 e5             	mov    %rsp,%rbp
  4036a8:	48 83 ec 10          	sub    $0x10,%rsp
  4036ac:	48 89 7d f8          	mov    %rdi,-0x8(%rbp)
  4036b0:	be 00 00 00 00       	mov    $0x0,%esi
  4036b5:	bf e0 7b 60 00       	mov    $0x607be0,%edi
  4036ba:	e8 0d 08 00 00       	callq  403ecc <Pthread_rwlock_init>
  4036bf:	48 8b 45 f8          	mov    -0x8(%rbp),%rax
  4036c3:	c7 00 00 00 00 00    	movl   $0x0,(%rax)
  4036c9:	48 8b 45 f8          	mov    -0x8(%rbp),%rax
  4036cd:	48 c7 40 08 00 00 00 	movq   $0x0,0x8(%rax)
  4036d4:	00 
  4036d5:	c9                   	leaveq 
  4036d6:	c3                   	retq   

00000000004036d7 <cache_full>:
  4036d7:	55                   	push   %rbp
  4036d8:	48 89 e5             	mov    %rsp,%rbp
  4036db:	48 89 7d f8          	mov    %rdi,-0x8(%rbp)
  4036df:	48 8b 45 f8          	mov    -0x8(%rbp),%rax
  4036e3:	8b 00                	mov    (%rax),%eax
  4036e5:	ba a8 01 10 00       	mov    $0x1001a8,%edx
  4036ea:	29 c2                	sub    %eax,%edx
  4036ec:	89 d0                	mov    %edx,%eax
  4036ee:	3d ff 8f 01 00       	cmp    $0x18fff,%eax
  4036f3:	0f 96 c0             	setbe  %al
  4036f6:	0f b6 c0             	movzbl %al,%eax
  4036f9:	5d                   	pop    %rbp
  4036fa:	c3                   	retq   

00000000004036fb <cache_free>:
  4036fb:	55                   	push   %rbp
  4036fc:	48 89 e5             	mov    %rsp,%rbp
  4036ff:	48 83 ec 20          	sub    $0x20,%rsp
  403703:	48 89 7d e8          	mov    %rdi,-0x18(%rbp)
  403707:	89 75 e4             	mov    %esi,-0x1c(%rbp)
  40370a:	83 7d e4 0a          	cmpl   $0xa,-0x1c(%rbp)
  40370e:	7e 0a                	jle    40371a <cache_free+0x1f>
  403710:	bf f8 5b 40 00       	mov    $0x405bf8,%edi
  403715:	e8 06 e5 ff ff       	callq  401c20 <puts@plt>
  40371a:	48 8b 45 e8          	mov    -0x18(%rbp),%rax
  40371e:	48 8b 40 08          	mov    0x8(%rax),%rax
  403722:	48 89 45 f8          	mov    %rax,-0x8(%rbp)
  403726:	48 8b 45 f8          	mov    -0x8(%rbp),%rax
  40372a:	48 8b 40 18          	mov    0x18(%rax),%rax
  40372e:	48 89 45 f0          	mov    %rax,-0x10(%rbp)
  403732:	eb 42                	jmp    403776 <cache_free+0x7b>
  403734:	48 8b 55 f8          	mov    -0x8(%rbp),%rdx
  403738:	48 8b 45 e8          	mov    -0x18(%rbp),%rax
  40373c:	48 89 d6             	mov    %rdx,%rsi
  40373f:	48 89 c7             	mov    %rax,%rdi
  403742:	e8 fa 04 00 00       	callq  403c41 <free_line>
  403747:	48 8b 45 f8          	mov    -0x8(%rbp),%rax
  40374b:	48 8b 40 18          	mov    0x18(%rax),%rax
  40374f:	48 89 c7             	mov    %rax,%rdi
  403752:	e8 47 13 00 00       	callq  404a9e <Free>
  403757:	48 8b 45 f0          	mov    -0x10(%rbp),%rax
  40375b:	48 89 45 f8          	mov    %rax,-0x8(%rbp)
  40375f:	48 83 7d f0 00       	cmpq   $0x0,-0x10(%rbp)
  403764:	74 0e                	je     403774 <cache_free+0x79>
  403766:	48 8b 45 f0          	mov    -0x10(%rbp),%rax
  40376a:	48 8b 40 18          	mov    0x18(%rax),%rax
  40376e:	48 89 45 f0          	mov    %rax,-0x10(%rbp)
  403772:	eb 02                	jmp    403776 <cache_free+0x7b>
  403774:	eb 07                	jmp    40377d <cache_free+0x82>
  403776:	48 83 7d f8 00       	cmpq   $0x0,-0x8(%rbp)
  40377b:	75 b7                	jne    403734 <cache_free+0x39>
  40377d:	48 8b 45 e8          	mov    -0x18(%rbp),%rax
  403781:	48 8b 40 08          	mov    0x8(%rax),%rax
  403785:	48 89 c7             	mov    %rax,%rdi
  403788:	e8 11 13 00 00       	callq  404a9e <Free>
  40378d:	bf e0 7b 60 00       	mov    $0x607be0,%edi
  403792:	e8 00 08 00 00       	callq  403f97 <Pthread_rwlock_destroy>
  403797:	c9                   	leaveq 
  403798:	c3                   	retq   

0000000000403799 <in_cache>:
  403799:	55                   	push   %rbp
  40379a:	48 89 e5             	mov    %rsp,%rbp
  40379d:	41 57                	push   %r15
  40379f:	41 56                	push   %r14
  4037a1:	41 55                	push   %r13
  4037a3:	41 54                	push   %r12
  4037a5:	53                   	push   %rbx
  4037a6:	48 83 ec 58          	sub    $0x58,%rsp
  4037aa:	48 89 7d 98          	mov    %rdi,-0x68(%rbp)
  4037ae:	48 89 75 90          	mov    %rsi,-0x70(%rbp)
  4037b2:	48 89 55 88          	mov    %rdx,-0x78(%rbp)
  4037b6:	48 89 e0             	mov    %rsp,%rax
  4037b9:	48 89 45 80          	mov    %rax,-0x80(%rbp)
  4037bd:	48 8b 45 90          	mov    -0x70(%rbp),%rax
  4037c1:	48 89 c7             	mov    %rax,%rdi
  4037c4:	e8 87 e5 ff ff       	callq  401d50 <strlen@plt>
  4037c9:	48 89 c3             	mov    %rax,%rbx
  4037cc:	48 8b 45 88          	mov    -0x78(%rbp),%rax
  4037d0:	48 89 c7             	mov    %rax,%rdi
  4037d3:	e8 78 e5 ff ff       	callq  401d50 <strlen@plt>
  4037d8:	48 01 d8             	add    %rbx,%rax
  4037db:	48 83 c0 02          	add    $0x2,%rax
  4037df:	48 89 45 b8          	mov    %rax,-0x48(%rbp)
  4037e3:	48 8b 4d b8          	mov    -0x48(%rbp),%rcx
  4037e7:	48 89 c8             	mov    %rcx,%rax
  4037ea:	48 83 e8 01          	sub    $0x1,%rax
  4037ee:	48 89 45 b0          	mov    %rax,-0x50(%rbp)
  4037f2:	49 89 ce             	mov    %rcx,%r14
  4037f5:	41 bf 00 00 00 00    	mov    $0x0,%r15d
  4037fb:	49 89 cc             	mov    %rcx,%r12
  4037fe:	41 bd 00 00 00 00    	mov    $0x0,%r13d
  403804:	b8 10 00 00 00       	mov    $0x10,%eax
  403809:	48 83 e8 01          	sub    $0x1,%rax
  40380d:	48 01 c8             	add    %rcx,%rax
  403810:	bb 10 00 00 00       	mov    $0x10,%ebx
  403815:	ba 00 00 00 00       	mov    $0x0,%edx
  40381a:	48 f7 f3             	div    %rbx
  40381d:	48 6b c0 10          	imul   $0x10,%rax,%rax
  403821:	48 29 c4             	sub    %rax,%rsp
  403824:	48 89 e0             	mov    %rsp,%rax
  403827:	48 83 c0 00          	add    $0x0,%rax
  40382b:	48 89 45 a8          	mov    %rax,-0x58(%rbp)
  40382f:	48 8b 45 a8          	mov    -0x58(%rbp),%rax
  403833:	48 89 ca             	mov    %rcx,%rdx
  403836:	be 00 00 00 00       	mov    $0x0,%esi
  40383b:	48 89 c7             	mov    %rax,%rdi
  40383e:	e8 7d e3 ff ff       	callq  401bc0 <memset@plt>
  403843:	48 8b 45 98          	mov    -0x68(%rbp),%rax
  403847:	8b 00                	mov    (%rax),%eax
  403849:	85 c0                	test   %eax,%eax
  40384b:	75 0a                	jne    403857 <in_cache+0xbe>
  40384d:	b8 00 00 00 00       	mov    $0x0,%eax
  403852:	e9 84 00 00 00       	jmpq   4038db <in_cache+0x142>
  403857:	48 8b 45 98          	mov    -0x68(%rbp),%rax
  40385b:	48 89 c7             	mov    %rax,%rdi
  40385e:	e8 8d 02 00 00       	callq  403af0 <age_lines>
  403863:	48 8b 45 a8          	mov    -0x58(%rbp),%rax
  403867:	48 8b 55 90          	mov    -0x70(%rbp),%rdx
  40386b:	48 89 d6             	mov    %rdx,%rsi
  40386e:	48 89 c7             	mov    %rax,%rdi
  403871:	e8 0a e6 ff ff       	callq  401e80 <strcat@plt>
  403876:	48 8b 45 a8          	mov    -0x58(%rbp),%rax
  40387a:	48 8b 55 88          	mov    -0x78(%rbp),%rdx
  40387e:	48 89 d6             	mov    %rdx,%rsi
  403881:	48 89 c7             	mov    %rax,%rdi
  403884:	e8 f7 e5 ff ff       	callq  401e80 <strcat@plt>
  403889:	48 c7 45 c8 00 00 00 	movq   $0x0,-0x38(%rbp)
  403890:	00 
  403891:	48 8b 45 98          	mov    -0x68(%rbp),%rax
  403895:	48 8b 40 08          	mov    0x8(%rax),%rax
  403899:	48 89 45 c0          	mov    %rax,-0x40(%rbp)
  40389d:	eb 31                	jmp    4038d0 <in_cache+0x137>
  40389f:	48 8b 45 c0          	mov    -0x40(%rbp),%rax
  4038a3:	48 8b 50 08          	mov    0x8(%rax),%rdx
  4038a7:	48 8b 45 a8          	mov    -0x58(%rbp),%rax
  4038ab:	48 89 d6             	mov    %rdx,%rsi
  4038ae:	48 89 c7             	mov    %rax,%rdi
  4038b1:	e8 da e6 ff ff       	callq  401f90 <strcmp@plt>
  4038b6:	85 c0                	test   %eax,%eax
  4038b8:	75 0a                	jne    4038c4 <in_cache+0x12b>
  4038ba:	48 8b 45 c0          	mov    -0x40(%rbp),%rax
  4038be:	48 89 45 c8          	mov    %rax,-0x38(%rbp)
  4038c2:	eb 13                	jmp    4038d7 <in_cache+0x13e>
  4038c4:	48 8b 45 c0          	mov    -0x40(%rbp),%rax
  4038c8:	48 8b 40 18          	mov    0x18(%rax),%rax
  4038cc:	48 89 45 c0          	mov    %rax,-0x40(%rbp)
  4038d0:	48 83 7d c0 00       	cmpq   $0x0,-0x40(%rbp)
  4038d5:	75 c8                	jne    40389f <in_cache+0x106>
  4038d7:	48 8b 45 c8          	mov    -0x38(%rbp),%rax
  4038db:	48 8b 65 80          	mov    -0x80(%rbp),%rsp
  4038df:	48 8d 65 d8          	lea    -0x28(%rbp),%rsp
  4038e3:	5b                   	pop    %rbx
  4038e4:	41 5c                	pop    %r12
  4038e6:	41 5d                	pop    %r13
  4038e8:	41 5e                	pop    %r14
  4038ea:	41 5f                	pop    %r15
  4038ec:	5d                   	pop    %rbp
  4038ed:	c3                   	retq   

00000000004038ee <make_line>:
  4038ee:	55                   	push   %rbp
  4038ef:	48 89 e5             	mov    %rsp,%rbp
  4038f2:	41 57                	push   %r15
  4038f4:	41 56                	push   %r14
  4038f6:	41 55                	push   %r13
  4038f8:	41 54                	push   %r12
  4038fa:	53                   	push   %rbx
  4038fb:	48 83 ec 58          	sub    $0x58,%rsp
  4038ff:	48 89 7d a8          	mov    %rdi,-0x58(%rbp)
  403903:	48 89 75 a0          	mov    %rsi,-0x60(%rbp)
  403907:	48 89 55 98          	mov    %rdx,-0x68(%rbp)
  40390b:	48 89 4d 90          	mov    %rcx,-0x70(%rbp)
  40390f:	48 89 e0             	mov    %rsp,%rax
  403912:	48 89 45 88          	mov    %rax,-0x78(%rbp)
  403916:	48 8b 45 a8          	mov    -0x58(%rbp),%rax
  40391a:	48 89 c7             	mov    %rax,%rdi
  40391d:	e8 2e e4 ff ff       	callq  401d50 <strlen@plt>
  403922:	48 89 c3             	mov    %rax,%rbx
  403925:	48 8b 45 a0          	mov    -0x60(%rbp),%rax
  403929:	48 89 c7             	mov    %rax,%rdi
  40392c:	e8 1f e4 ff ff       	callq  401d50 <strlen@plt>
  403931:	48 01 d8             	add    %rbx,%rax
  403934:	48 83 c0 02          	add    $0x2,%rax
  403938:	48 89 45 c8          	mov    %rax,-0x38(%rbp)
  40393c:	48 8b 4d c8          	mov    -0x38(%rbp),%rcx
  403940:	48 89 c8             	mov    %rcx,%rax
  403943:	48 83 e8 01          	sub    $0x1,%rax
  403947:	48 89 45 c0          	mov    %rax,-0x40(%rbp)
  40394b:	49 89 ce             	mov    %rcx,%r14
  40394e:	41 bf 00 00 00 00    	mov    $0x0,%r15d
  403954:	49 89 cc             	mov    %rcx,%r12
  403957:	41 bd 00 00 00 00    	mov    $0x0,%r13d
  40395d:	b8 10 00 00 00       	mov    $0x10,%eax
  403962:	48 83 e8 01          	sub    $0x1,%rax
  403966:	48 01 c8             	add    %rcx,%rax
  403969:	bb 10 00 00 00       	mov    $0x10,%ebx
  40396e:	ba 00 00 00 00       	mov    $0x0,%edx
  403973:	48 f7 f3             	div    %rbx
  403976:	48 6b c0 10          	imul   $0x10,%rax,%rax
  40397a:	48 29 c4             	sub    %rax,%rsp
  40397d:	48 89 e0             	mov    %rsp,%rax
  403980:	48 83 c0 00          	add    $0x0,%rax
  403984:	48 89 45 b8          	mov    %rax,-0x48(%rbp)
  403988:	48 8b 45 b8          	mov    -0x48(%rbp),%rax
  40398c:	48 89 ca             	mov    %rcx,%rdx
  40398f:	be 00 00 00 00       	mov    $0x0,%esi
  403994:	48 89 c7             	mov    %rax,%rdi
  403997:	e8 24 e2 ff ff       	callq  401bc0 <memset@plt>
  40399c:	bf 20 00 00 00       	mov    $0x20,%edi
  4039a1:	e8 49 10 00 00       	callq  4049ef <Malloc>
  4039a6:	48 89 45 b0          	mov    %rax,-0x50(%rbp)
  4039aa:	48 8b 45 90          	mov    -0x70(%rbp),%rax
  4039ae:	89 c2                	mov    %eax,%edx
  4039b0:	48 8b 45 b0          	mov    -0x50(%rbp),%rax
  4039b4:	89 10                	mov    %edx,(%rax)
  4039b6:	48 8b 45 b0          	mov    -0x50(%rbp),%rax
  4039ba:	c7 40 04 00 00 00 00 	movl   $0x0,0x4(%rax)
  4039c1:	48 8b 45 b8          	mov    -0x48(%rbp),%rax
  4039c5:	48 8b 55 a8          	mov    -0x58(%rbp),%rdx
  4039c9:	48 89 d6             	mov    %rdx,%rsi
  4039cc:	48 89 c7             	mov    %rax,%rdi
  4039cf:	e8 ac e4 ff ff       	callq  401e80 <strcat@plt>
  4039d4:	48 8b 45 b8          	mov    -0x48(%rbp),%rax
  4039d8:	48 8b 55 a0          	mov    -0x60(%rbp),%rdx
  4039dc:	48 89 d6             	mov    %rdx,%rsi
  4039df:	48 89 c7             	mov    %rax,%rdi
  4039e2:	e8 99 e4 ff ff       	callq  401e80 <strcat@plt>
  4039e7:	48 8b 45 b8          	mov    -0x48(%rbp),%rax
  4039eb:	48 89 c7             	mov    %rax,%rdi
  4039ee:	e8 5d e3 ff ff       	callq  401d50 <strlen@plt>
  4039f3:	48 83 c0 01          	add    $0x1,%rax
  4039f7:	48 89 45 c8          	mov    %rax,-0x38(%rbp)
  4039fb:	48 8b 45 c8          	mov    -0x38(%rbp),%rax
  4039ff:	48 89 c7             	mov    %rax,%rdi
  403a02:	e8 e8 0f 00 00       	callq  4049ef <Malloc>
  403a07:	48 8b 55 b0          	mov    -0x50(%rbp),%rdx
  403a0b:	48 89 42 08          	mov    %rax,0x8(%rdx)
  403a0f:	48 8b 4d b8          	mov    -0x48(%rbp),%rcx
  403a13:	48 8b 45 b0          	mov    -0x50(%rbp),%rax
  403a17:	48 8b 40 08          	mov    0x8(%rax),%rax
  403a1b:	48 8b 55 c8          	mov    -0x38(%rbp),%rdx
  403a1f:	48 89 ce             	mov    %rcx,%rsi
  403a22:	48 89 c7             	mov    %rax,%rdi
  403a25:	e8 b6 e4 ff ff       	callq  401ee0 <memcpy@plt>
  403a2a:	48 8b 45 90          	mov    -0x70(%rbp),%rax
  403a2e:	48 83 c0 01          	add    $0x1,%rax
  403a32:	48 89 c7             	mov    %rax,%rdi
  403a35:	e8 b5 0f 00 00       	callq  4049ef <Malloc>
  403a3a:	48 8b 55 b0          	mov    -0x50(%rbp),%rdx
  403a3e:	48 89 42 10          	mov    %rax,0x10(%rdx)
  403a42:	48 8b 45 b0          	mov    -0x50(%rbp),%rax
  403a46:	48 8b 40 10          	mov    0x10(%rax),%rax
  403a4a:	48 8b 55 90          	mov    -0x70(%rbp),%rdx
  403a4e:	48 8b 4d 98          	mov    -0x68(%rbp),%rcx
  403a52:	48 89 ce             	mov    %rcx,%rsi
  403a55:	48 89 c7             	mov    %rax,%rdi
  403a58:	e8 83 e4 ff ff       	callq  401ee0 <memcpy@plt>
  403a5d:	48 8b 45 b0          	mov    -0x50(%rbp),%rax
  403a61:	48 c7 40 18 00 00 00 	movq   $0x0,0x18(%rax)
  403a68:	00 
  403a69:	48 8b 45 b0          	mov    -0x50(%rbp),%rax
  403a6d:	48 8b 65 88          	mov    -0x78(%rbp),%rsp
  403a71:	48 8d 65 d8          	lea    -0x28(%rbp),%rsp
  403a75:	5b                   	pop    %rbx
  403a76:	41 5c                	pop    %r12
  403a78:	41 5d                	pop    %r13
  403a7a:	41 5e                	pop    %r14
  403a7c:	41 5f                	pop    %r15
  403a7e:	5d                   	pop    %rbp
  403a7f:	c3                   	retq   

0000000000403a80 <add_line>:
  403a80:	55                   	push   %rbp
  403a81:	48 89 e5             	mov    %rsp,%rbp
  403a84:	48 83 ec 10          	sub    $0x10,%rsp
  403a88:	48 89 7d f8          	mov    %rdi,-0x8(%rbp)
  403a8c:	48 89 75 f0          	mov    %rsi,-0x10(%rbp)
  403a90:	48 8b 45 f8          	mov    -0x8(%rbp),%rax
  403a94:	48 89 c7             	mov    %rax,%rdi
  403a97:	e8 3b fc ff ff       	callq  4036d7 <cache_full>
  403a9c:	85 c0                	test   %eax,%eax
  403a9e:	74 1e                	je     403abe <add_line+0x3e>
  403aa0:	48 8b 45 f8          	mov    -0x8(%rbp),%rax
  403aa4:	48 89 c7             	mov    %rax,%rdi
  403aa7:	e8 37 01 00 00       	callq  403be3 <choose_evict>
  403aac:	48 89 c2             	mov    %rax,%rdx
  403aaf:	48 8b 45 f8          	mov    -0x8(%rbp),%rax
  403ab3:	48 89 d6             	mov    %rdx,%rsi
  403ab6:	48 89 c7             	mov    %rax,%rdi
  403ab9:	e8 6e 00 00 00       	callq  403b2c <remove_line>
  403abe:	48 8b 45 f8          	mov    -0x8(%rbp),%rax
  403ac2:	48 8b 50 08          	mov    0x8(%rax),%rdx
  403ac6:	48 8b 45 f0          	mov    -0x10(%rbp),%rax
  403aca:	48 89 50 18          	mov    %rdx,0x18(%rax)
  403ace:	48 8b 45 f8          	mov    -0x8(%rbp),%rax
  403ad2:	48 8b 55 f0          	mov    -0x10(%rbp),%rdx
  403ad6:	48 89 50 08          	mov    %rdx,0x8(%rax)
  403ada:	48 8b 45 f8          	mov    -0x8(%rbp),%rax
  403ade:	8b 10                	mov    (%rax),%edx
  403ae0:	48 8b 45 f0          	mov    -0x10(%rbp),%rax
  403ae4:	8b 00                	mov    (%rax),%eax
  403ae6:	01 c2                	add    %eax,%edx
  403ae8:	48 8b 45 f8          	mov    -0x8(%rbp),%rax
  403aec:	89 10                	mov    %edx,(%rax)
  403aee:	c9                   	leaveq 
  403aef:	c3                   	retq   

0000000000403af0 <age_lines>:
  403af0:	55                   	push   %rbp
  403af1:	48 89 e5             	mov    %rsp,%rbp
  403af4:	48 89 7d e8          	mov    %rdi,-0x18(%rbp)
  403af8:	48 8b 45 e8          	mov    -0x18(%rbp),%rax
  403afc:	48 8b 40 08          	mov    0x8(%rax),%rax
  403b00:	48 89 45 f8          	mov    %rax,-0x8(%rbp)
  403b04:	eb 1d                	jmp    403b23 <age_lines+0x33>
  403b06:	48 8b 45 f8          	mov    -0x8(%rbp),%rax
  403b0a:	8b 40 04             	mov    0x4(%rax),%eax
  403b0d:	8d 50 01             	lea    0x1(%rax),%edx
  403b10:	48 8b 45 f8          	mov    -0x8(%rbp),%rax
  403b14:	89 50 04             	mov    %edx,0x4(%rax)
  403b17:	48 8b 45 f8          	mov    -0x8(%rbp),%rax
  403b1b:	48 8b 40 18          	mov    0x18(%rax),%rax
  403b1f:	48 89 45 f8          	mov    %rax,-0x8(%rbp)
  403b23:	48 83 7d f8 00       	cmpq   $0x0,-0x8(%rbp)
  403b28:	75 dc                	jne    403b06 <age_lines+0x16>
  403b2a:	5d                   	pop    %rbp
  403b2b:	c3                   	retq   

0000000000403b2c <remove_line>:
  403b2c:	55                   	push   %rbp
  403b2d:	48 89 e5             	mov    %rsp,%rbp
  403b30:	48 83 ec 20          	sub    $0x20,%rsp
  403b34:	48 89 7d e8          	mov    %rdi,-0x18(%rbp)
  403b38:	48 89 75 e0          	mov    %rsi,-0x20(%rbp)
  403b3c:	48 8b 45 e8          	mov    -0x18(%rbp),%rax
  403b40:	48 8b 40 08          	mov    0x8(%rax),%rax
  403b44:	48 89 45 f8          	mov    %rax,-0x8(%rbp)
  403b48:	48 8b 45 f8          	mov    -0x8(%rbp),%rax
  403b4c:	48 3b 45 e0          	cmp    -0x20(%rbp),%rax
  403b50:	75 31                	jne    403b83 <remove_line+0x57>
  403b52:	48 8b 45 e0          	mov    -0x20(%rbp),%rax
  403b56:	48 8b 50 18          	mov    0x18(%rax),%rdx
  403b5a:	48 8b 45 e8          	mov    -0x18(%rbp),%rax
  403b5e:	48 89 50 08          	mov    %rdx,0x8(%rax)
  403b62:	48 8b 55 e0          	mov    -0x20(%rbp),%rdx
  403b66:	48 8b 45 e8          	mov    -0x18(%rbp),%rax
  403b6a:	48 89 d6             	mov    %rdx,%rsi
  403b6d:	48 89 c7             	mov    %rax,%rdi
  403b70:	e8 cc 00 00 00       	callq  403c41 <free_line>
  403b75:	48 8b 45 e0          	mov    -0x20(%rbp),%rax
  403b79:	48 89 c7             	mov    %rax,%rdi
  403b7c:	e8 bf e1 ff ff       	callq  401d40 <free@plt>
  403b81:	eb 5e                	jmp    403be1 <remove_line+0xb5>
  403b83:	eb 4b                	jmp    403bd0 <remove_line+0xa4>
  403b85:	48 8b 45 f8          	mov    -0x8(%rbp),%rax
  403b89:	48 8b 40 18          	mov    0x18(%rax),%rax
  403b8d:	48 3b 45 e0          	cmp    -0x20(%rbp),%rax
  403b91:	75 31                	jne    403bc4 <remove_line+0x98>
  403b93:	48 8b 45 e0          	mov    -0x20(%rbp),%rax
  403b97:	48 8b 50 18          	mov    0x18(%rax),%rdx
  403b9b:	48 8b 45 f8          	mov    -0x8(%rbp),%rax
  403b9f:	48 89 50 18          	mov    %rdx,0x18(%rax)
  403ba3:	48 8b 55 e0          	mov    -0x20(%rbp),%rdx
  403ba7:	48 8b 45 e8          	mov    -0x18(%rbp),%rax
  403bab:	48 89 d6             	mov    %rdx,%rsi
  403bae:	48 89 c7             	mov    %rax,%rdi
  403bb1:	e8 8b 00 00 00       	callq  403c41 <free_line>
  403bb6:	48 8b 45 e0          	mov    -0x20(%rbp),%rax
  403bba:	48 89 c7             	mov    %rax,%rdi
  403bbd:	e8 7e e1 ff ff       	callq  401d40 <free@plt>
  403bc2:	eb 1d                	jmp    403be1 <remove_line+0xb5>
  403bc4:	48 8b 45 f8          	mov    -0x8(%rbp),%rax
  403bc8:	48 8b 40 18          	mov    0x18(%rax),%rax
  403bcc:	48 89 45 f8          	mov    %rax,-0x8(%rbp)
  403bd0:	48 83 7d f8 00       	cmpq   $0x0,-0x8(%rbp)
  403bd5:	75 ae                	jne    403b85 <remove_line+0x59>
  403bd7:	bf 20 5c 40 00       	mov    $0x405c20,%edi
  403bdc:	e8 a6 00 00 00       	callq  403c87 <cache_error>
  403be1:	c9                   	leaveq 
  403be2:	c3                   	retq   

0000000000403be3 <choose_evict>:
  403be3:	55                   	push   %rbp
  403be4:	48 89 e5             	mov    %rsp,%rbp
  403be7:	48 89 7d d8          	mov    %rdi,-0x28(%rbp)
  403beb:	c7 45 ec ff ff ff ff 	movl   $0xffffffff,-0x14(%rbp)
  403bf2:	48 8b 45 d8          	mov    -0x28(%rbp),%rax
  403bf6:	48 8b 40 08          	mov    0x8(%rax),%rax
  403bfa:	48 89 45 f0          	mov    %rax,-0x10(%rbp)
  403bfe:	48 8b 45 f0          	mov    -0x10(%rbp),%rax
  403c02:	48 89 45 f8          	mov    %rax,-0x8(%rbp)
  403c06:	eb 2c                	jmp    403c34 <choose_evict+0x51>
  403c08:	48 8b 45 f0          	mov    -0x10(%rbp),%rax
  403c0c:	8b 50 04             	mov    0x4(%rax),%edx
  403c0f:	8b 45 ec             	mov    -0x14(%rbp),%eax
  403c12:	39 c2                	cmp    %eax,%edx
  403c14:	76 12                	jbe    403c28 <choose_evict+0x45>
  403c16:	48 8b 45 f0          	mov    -0x10(%rbp),%rax
  403c1a:	8b 40 04             	mov    0x4(%rax),%eax
  403c1d:	89 45 ec             	mov    %eax,-0x14(%rbp)
  403c20:	48 8b 45 f0          	mov    -0x10(%rbp),%rax
  403c24:	48 89 45 f8          	mov    %rax,-0x8(%rbp)
  403c28:	48 8b 45 f0          	mov    -0x10(%rbp),%rax
  403c2c:	48 8b 40 18          	mov    0x18(%rax),%rax
  403c30:	48 89 45 f0          	mov    %rax,-0x10(%rbp)
  403c34:	48 83 7d f0 00       	cmpq   $0x0,-0x10(%rbp)
  403c39:	75 cd                	jne    403c08 <choose_evict+0x25>
  403c3b:	48 8b 45 f8          	mov    -0x8(%rbp),%rax
  403c3f:	5d                   	pop    %rbp
  403c40:	c3                   	retq   

0000000000403c41 <free_line>:
  403c41:	55                   	push   %rbp
  403c42:	48 89 e5             	mov    %rsp,%rbp
  403c45:	48 83 ec 10          	sub    $0x10,%rsp
  403c49:	48 89 7d f8          	mov    %rdi,-0x8(%rbp)
  403c4d:	48 89 75 f0          	mov    %rsi,-0x10(%rbp)
  403c51:	48 8b 45 f8          	mov    -0x8(%rbp),%rax
  403c55:	8b 10                	mov    (%rax),%edx
  403c57:	48 8b 45 f0          	mov    -0x10(%rbp),%rax
  403c5b:	8b 00                	mov    (%rax),%eax
  403c5d:	29 c2                	sub    %eax,%edx
  403c5f:	48 8b 45 f8          	mov    -0x8(%rbp),%rax
  403c63:	89 10                	mov    %edx,(%rax)
  403c65:	48 8b 45 f0          	mov    -0x10(%rbp),%rax
  403c69:	48 8b 40 08          	mov    0x8(%rax),%rax
  403c6d:	48 89 c7             	mov    %rax,%rdi
  403c70:	e8 29 0e 00 00       	callq  404a9e <Free>
  403c75:	48 8b 45 f0          	mov    -0x10(%rbp),%rax
  403c79:	48 8b 40 10          	mov    0x10(%rax),%rax
  403c7d:	48 89 c7             	mov    %rax,%rdi
  403c80:	e8 19 0e 00 00       	callq  404a9e <Free>
  403c85:	c9                   	leaveq 
  403c86:	c3                   	retq   

0000000000403c87 <cache_error>:
  403c87:	55                   	push   %rbp
  403c88:	48 89 e5             	mov    %rsp,%rbp
  403c8b:	48 83 ec 10          	sub    $0x10,%rsp
  403c8f:	48 89 7d f8          	mov    %rdi,-0x8(%rbp)
  403c93:	48 8b 05 26 3f 20 00 	mov    0x203f26(%rip),%rax        # 607bc0 <stderr@@GLIBC_2.2.5>
  403c9a:	48 8b 55 f8          	mov    -0x8(%rbp),%rdx
  403c9e:	be 42 5c 40 00       	mov    $0x405c42,%esi
  403ca3:	48 89 c7             	mov    %rax,%rdi
  403ca6:	b8 00 00 00 00       	mov    $0x0,%eax
  403cab:	e8 30 e4 ff ff       	callq  4020e0 <fprintf@plt>
  403cb0:	c9                   	leaveq 
  403cb1:	c3                   	retq   

0000000000403cb2 <print_cache>:
  403cb2:	55                   	push   %rbp
  403cb3:	48 89 e5             	mov    %rsp,%rbp
  403cb6:	48 83 ec 20          	sub    $0x20,%rsp
  403cba:	48 89 7d e8          	mov    %rdi,-0x18(%rbp)
  403cbe:	bf 60 5c 40 00       	mov    $0x405c60,%edi
  403cc3:	e8 58 df ff ff       	callq  401c20 <puts@plt>
  403cc8:	bf 82 5c 40 00       	mov    $0x405c82,%edi
  403ccd:	e8 4e df ff ff       	callq  401c20 <puts@plt>
  403cd2:	48 8b 45 e8          	mov    -0x18(%rbp),%rax
  403cd6:	8b 00                	mov    (%rax),%eax
  403cd8:	89 c6                	mov    %eax,%esi
  403cda:	bf 92 5c 40 00       	mov    $0x405c92,%edi
  403cdf:	b8 00 00 00 00       	mov    $0x0,%eax
  403ce4:	e8 b7 de ff ff       	callq  401ba0 <printf@plt>
  403ce9:	48 8b 45 e8          	mov    -0x18(%rbp),%rax
  403ced:	48 8b 40 08          	mov    0x8(%rax),%rax
  403cf1:	48 85 c0             	test   %rax,%rax
  403cf4:	74 20                	je     403d16 <print_cache+0x64>
  403cf6:	48 8b 45 e8          	mov    -0x18(%rbp),%rax
  403cfa:	48 8b 40 08          	mov    0x8(%rax),%rax
  403cfe:	48 8b 40 08          	mov    0x8(%rax),%rax
  403d02:	48 89 c6             	mov    %rax,%rsi
  403d05:	bf 9c 5c 40 00       	mov    $0x405c9c,%edi
  403d0a:	b8 00 00 00 00       	mov    $0x0,%eax
  403d0f:	e8 8c de ff ff       	callq  401ba0 <printf@plt>
  403d14:	eb 0a                	jmp    403d20 <print_cache+0x6e>
  403d16:	bf a7 5c 40 00       	mov    $0x405ca7,%edi
  403d1b:	e8 00 df ff ff       	callq  401c20 <puts@plt>
  403d20:	bf b3 5c 40 00       	mov    $0x405cb3,%edi
  403d25:	e8 f6 de ff ff       	callq  401c20 <puts@plt>
  403d2a:	bf c4 5c 40 00       	mov    $0x405cc4,%edi
  403d2f:	e8 ec de ff ff       	callq  401c20 <puts@plt>
  403d34:	48 8b 45 e8          	mov    -0x18(%rbp),%rax
  403d38:	48 8b 40 08          	mov    0x8(%rax),%rax
  403d3c:	48 89 45 f8          	mov    %rax,-0x8(%rbp)
  403d40:	eb 18                	jmp    403d5a <print_cache+0xa8>
  403d42:	48 8b 45 f8          	mov    -0x8(%rbp),%rax
  403d46:	48 89 c7             	mov    %rax,%rdi
  403d49:	e8 29 00 00 00       	callq  403d77 <print_line>
  403d4e:	48 8b 45 f8          	mov    -0x8(%rbp),%rax
  403d52:	48 8b 40 18          	mov    0x18(%rax),%rax
  403d56:	48 89 45 f8          	mov    %rax,-0x8(%rbp)
  403d5a:	48 83 7d f8 00       	cmpq   $0x0,-0x8(%rbp)
  403d5f:	75 e1                	jne    403d42 <print_cache+0x90>
  403d61:	bf d4 5c 40 00       	mov    $0x405cd4,%edi
  403d66:	e8 b5 de ff ff       	callq  401c20 <puts@plt>
  403d6b:	bf e8 5c 40 00       	mov    $0x405ce8,%edi
  403d70:	e8 ab de ff ff       	callq  401c20 <puts@plt>
  403d75:	c9                   	leaveq 
  403d76:	c3                   	retq   

0000000000403d77 <print_line>:
  403d77:	55                   	push   %rbp
  403d78:	48 89 e5             	mov    %rsp,%rbp
  403d7b:	48 83 ec 30          	sub    $0x30,%rsp
  403d7f:	48 89 7d d8          	mov    %rdi,-0x28(%rbp)
  403d83:	48 83 7d d8 00       	cmpq   $0x0,-0x28(%rbp)
  403d88:	0f 84 f2 00 00 00    	je     403e80 <print_line+0x109>
  403d8e:	48 8b 45 d8          	mov    -0x28(%rbp),%rax
  403d92:	8b 00                	mov    (%rax),%eax
  403d94:	89 45 ec             	mov    %eax,-0x14(%rbp)
  403d97:	48 8b 45 d8          	mov    -0x28(%rbp),%rax
  403d9b:	8b 40 04             	mov    0x4(%rax),%eax
  403d9e:	89 45 e8             	mov    %eax,-0x18(%rbp)
  403da1:	48 8b 45 d8          	mov    -0x28(%rbp),%rax
  403da5:	48 8b 40 08          	mov    0x8(%rax),%rax
  403da9:	48 89 45 f8          	mov    %rax,-0x8(%rbp)
  403dad:	48 8b 45 d8          	mov    -0x28(%rbp),%rax
  403db1:	48 8b 40 10          	mov    0x10(%rax),%rax
  403db5:	48 89 45 f0          	mov    %rax,-0x10(%rbp)
  403db9:	48 8b 45 d8          	mov    -0x28(%rbp),%rax
  403dbd:	48 8b 40 18          	mov    0x18(%rax),%rax
  403dc1:	48 89 45 e0          	mov    %rax,-0x20(%rbp)
  403dc5:	8b 45 ec             	mov    -0x14(%rbp),%eax
  403dc8:	89 c6                	mov    %eax,%esi
  403dca:	bf 0b 5d 40 00       	mov    $0x405d0b,%edi
  403dcf:	b8 00 00 00 00       	mov    $0x0,%eax
  403dd4:	e8 c7 dd ff ff       	callq  401ba0 <printf@plt>
  403dd9:	48 8b 45 f8          	mov    -0x8(%rbp),%rax
  403ddd:	0f b6 00             	movzbl (%rax),%eax
  403de0:	84 c0                	test   %al,%al
  403de2:	74 18                	je     403dfc <print_line+0x85>
  403de4:	48 8b 45 f8          	mov    -0x8(%rbp),%rax
  403de8:	48 89 c6             	mov    %rax,%rsi
  403deb:	bf 17 5d 40 00       	mov    $0x405d17,%edi
  403df0:	b8 00 00 00 00       	mov    $0x0,%eax
  403df5:	e8 a6 dd ff ff       	callq  401ba0 <printf@plt>
  403dfa:	eb 0f                	jmp    403e0b <print_line+0x94>
  403dfc:	bf 1d 5d 40 00       	mov    $0x405d1d,%edi
  403e01:	b8 00 00 00 00       	mov    $0x0,%eax
  403e06:	e8 95 dd ff ff       	callq  401ba0 <printf@plt>
  403e0b:	48 8b 45 f0          	mov    -0x10(%rbp),%rax
  403e0f:	0f b6 00             	movzbl (%rax),%eax
  403e12:	84 c0                	test   %al,%al
  403e14:	74 18                	je     403e2e <print_line+0xb7>
  403e16:	48 8b 45 f0          	mov    -0x10(%rbp),%rax
  403e1a:	48 89 c6             	mov    %rax,%rsi
  403e1d:	bf 2a 5d 40 00       	mov    $0x405d2a,%edi
  403e22:	b8 00 00 00 00       	mov    $0x0,%eax
  403e27:	e8 74 dd ff ff       	callq  401ba0 <printf@plt>
  403e2c:	eb 0f                	jmp    403e3d <print_line+0xc6>
  403e2e:	bf 33 5d 40 00       	mov    $0x405d33,%edi
  403e33:	b8 00 00 00 00       	mov    $0x0,%eax
  403e38:	e8 63 dd ff ff       	callq  401ba0 <printf@plt>
  403e3d:	8b 45 e8             	mov    -0x18(%rbp),%eax
  403e40:	89 c6                	mov    %eax,%esi
  403e42:	bf 40 5d 40 00       	mov    $0x405d40,%edi
  403e47:	b8 00 00 00 00       	mov    $0x0,%eax
  403e4c:	e8 4f dd ff ff       	callq  401ba0 <printf@plt>
  403e51:	48 83 7d e0 00       	cmpq   $0x0,-0x20(%rbp)
  403e56:	74 1c                	je     403e74 <print_line+0xfd>
  403e58:	48 8b 45 e0          	mov    -0x20(%rbp),%rax
  403e5c:	48 8b 40 08          	mov    0x8(%rax),%rax
  403e60:	48 89 c6             	mov    %rax,%rsi
  403e63:	bf 4c 5d 40 00       	mov    $0x405d4c,%edi
  403e68:	b8 00 00 00 00       	mov    $0x0,%eax
  403e6d:	e8 2e dd ff ff       	callq  401ba0 <printf@plt>
  403e72:	eb 16                	jmp    403e8a <print_line+0x113>
  403e74:	bf 58 5d 40 00       	mov    $0x405d58,%edi
  403e79:	e8 a2 dd ff ff       	callq  401c20 <puts@plt>
  403e7e:	eb 0a                	jmp    403e8a <print_line+0x113>
  403e80:	bf 61 5d 40 00       	mov    $0x405d61,%edi
  403e85:	e8 96 dd ff ff       	callq  401c20 <puts@plt>
  403e8a:	48 8b 45 f8          	mov    -0x8(%rbp),%rax
  403e8e:	48 89 c7             	mov    %rax,%rdi
  403e91:	e8 ba de ff ff       	callq  401d50 <strlen@plt>
  403e96:	48 89 c2             	mov    %rax,%rdx
  403e99:	48 8b 45 f8          	mov    -0x8(%rbp),%rax
  403e9d:	be 00 00 00 00       	mov    $0x0,%esi
  403ea2:	48 89 c7             	mov    %rax,%rdi
  403ea5:	e8 16 dd ff ff       	callq  401bc0 <memset@plt>
  403eaa:	48 8b 45 f8          	mov    -0x8(%rbp),%rax
  403eae:	48 89 c7             	mov    %rax,%rdi
  403eb1:	e8 9a de ff ff       	callq  401d50 <strlen@plt>
  403eb6:	48 89 c2             	mov    %rax,%rdx
  403eb9:	48 8b 45 f0          	mov    -0x10(%rbp),%rax
  403ebd:	be 00 00 00 00       	mov    $0x0,%esi
  403ec2:	48 89 c7             	mov    %rax,%rdi
  403ec5:	e8 f6 dc ff ff       	callq  401bc0 <memset@plt>
  403eca:	c9                   	leaveq 
  403ecb:	c3                   	retq   

0000000000403ecc <Pthread_rwlock_init>:
  403ecc:	55                   	push   %rbp
  403ecd:	48 89 e5             	mov    %rsp,%rbp
  403ed0:	48 83 ec 20          	sub    $0x20,%rsp
  403ed4:	48 89 7d e8          	mov    %rdi,-0x18(%rbp)
  403ed8:	48 89 75 e0          	mov    %rsi,-0x20(%rbp)
  403edc:	48 8b 55 e0          	mov    -0x20(%rbp),%rdx
  403ee0:	48 8b 45 e8          	mov    -0x18(%rbp),%rax
  403ee4:	48 89 d6             	mov    %rdx,%rsi
  403ee7:	48 89 c7             	mov    %rax,%rdi
  403eea:	e8 01 e0 ff ff       	callq  401ef0 <pthread_rwlock_init@plt>
  403eef:	89 45 fc             	mov    %eax,-0x4(%rbp)
  403ef2:	83 7d fc 00          	cmpl   $0x0,-0x4(%rbp)
  403ef6:	74 0a                	je     403f02 <Pthread_rwlock_init+0x36>
  403ef8:	bf 6f 5d 40 00       	mov    $0x405d6f,%edi
  403efd:	e8 85 fd ff ff       	callq  403c87 <cache_error>
  403f02:	8b 45 fc             	mov    -0x4(%rbp),%eax
  403f05:	c9                   	leaveq 
  403f06:	c3                   	retq   

0000000000403f07 <Pthread_rwlock_wrlock>:
  403f07:	55                   	push   %rbp
  403f08:	48 89 e5             	mov    %rsp,%rbp
  403f0b:	48 83 ec 20          	sub    $0x20,%rsp
  403f0f:	48 89 7d e8          	mov    %rdi,-0x18(%rbp)
  403f13:	48 8b 45 e8          	mov    -0x18(%rbp),%rax
  403f17:	48 89 c7             	mov    %rax,%rdi
  403f1a:	e8 21 e1 ff ff       	callq  402040 <pthread_rwlock_wrlock@plt>
  403f1f:	89 45 fc             	mov    %eax,-0x4(%rbp)
  403f22:	83 7d fc 00          	cmpl   $0x0,-0x4(%rbp)
  403f26:	74 0a                	je     403f32 <Pthread_rwlock_wrlock+0x2b>
  403f28:	bf 8a 5d 40 00       	mov    $0x405d8a,%edi
  403f2d:	e8 55 fd ff ff       	callq  403c87 <cache_error>
  403f32:	8b 45 fc             	mov    -0x4(%rbp),%eax
  403f35:	c9                   	leaveq 
  403f36:	c3                   	retq   

0000000000403f37 <Pthread_rwlock_rdlock>:
  403f37:	55                   	push   %rbp
  403f38:	48 89 e5             	mov    %rsp,%rbp
  403f3b:	48 83 ec 20          	sub    $0x20,%rsp
  403f3f:	48 89 7d e8          	mov    %rdi,-0x18(%rbp)
  403f43:	48 8b 45 e8          	mov    -0x18(%rbp),%rax
  403f47:	48 89 c7             	mov    %rax,%rdi
  403f4a:	e8 91 e0 ff ff       	callq  401fe0 <pthread_rwlock_rdlock@plt>
  403f4f:	89 45 fc             	mov    %eax,-0x4(%rbp)
  403f52:	83 7d fc 00          	cmpl   $0x0,-0x4(%rbp)
  403f56:	74 0a                	je     403f62 <Pthread_rwlock_rdlock+0x2b>
  403f58:	bf a7 5d 40 00       	mov    $0x405da7,%edi
  403f5d:	e8 25 fd ff ff       	callq  403c87 <cache_error>
  403f62:	8b 45 fc             	mov    -0x4(%rbp),%eax
  403f65:	c9                   	leaveq 
  403f66:	c3                   	retq   

0000000000403f67 <Pthread_rwlock_unlock>:
  403f67:	55                   	push   %rbp
  403f68:	48 89 e5             	mov    %rsp,%rbp
  403f6b:	48 83 ec 20          	sub    $0x20,%rsp
  403f6f:	48 89 7d e8          	mov    %rdi,-0x18(%rbp)
  403f73:	48 8b 45 e8          	mov    -0x18(%rbp),%rax
  403f77:	48 89 c7             	mov    %rax,%rdi
  403f7a:	e8 21 e1 ff ff       	callq  4020a0 <pthread_rwlock_unlock@plt>
  403f7f:	89 45 fc             	mov    %eax,-0x4(%rbp)
  403f82:	83 7d fc 00          	cmpl   $0x0,-0x4(%rbp)
  403f86:	74 0a                	je     403f92 <Pthread_rwlock_unlock+0x2b>
  403f88:	bf c4 5d 40 00       	mov    $0x405dc4,%edi
  403f8d:	e8 f5 fc ff ff       	callq  403c87 <cache_error>
  403f92:	8b 45 fc             	mov    -0x4(%rbp),%eax
  403f95:	c9                   	leaveq 
  403f96:	c3                   	retq   

0000000000403f97 <Pthread_rwlock_destroy>:
  403f97:	55                   	push   %rbp
  403f98:	48 89 e5             	mov    %rsp,%rbp
  403f9b:	48 83 ec 20          	sub    $0x20,%rsp
  403f9f:	48 89 7d e8          	mov    %rdi,-0x18(%rbp)
  403fa3:	48 8b 45 e8          	mov    -0x18(%rbp),%rax
  403fa7:	48 89 c7             	mov    %rax,%rdi
  403faa:	e8 11 dd ff ff       	callq  401cc0 <pthread_rwlock_destroy@plt>
  403faf:	89 45 fc             	mov    %eax,-0x4(%rbp)
  403fb2:	83 7d fc 00          	cmpl   $0x0,-0x4(%rbp)
  403fb6:	74 0a                	je     403fc2 <Pthread_rwlock_destroy+0x2b>
  403fb8:	bf e1 5d 40 00       	mov    $0x405de1,%edi
  403fbd:	e8 c5 fc ff ff       	callq  403c87 <cache_error>
  403fc2:	8b 45 fc             	mov    -0x4(%rbp),%eax
  403fc5:	c9                   	leaveq 
  403fc6:	c3                   	retq   
  403fc7:	90                   	nop

0000000000403fc8 <unix_error>:
  403fc8:	55                   	push   %rbp
  403fc9:	48 89 e5             	mov    %rsp,%rbp
  403fcc:	48 83 ec 10          	sub    $0x10,%rsp
  403fd0:	48 89 7d f8          	mov    %rdi,-0x8(%rbp)
  403fd4:	e8 77 df ff ff       	callq  401f50 <__errno_location@plt>
  403fd9:	8b 00                	mov    (%rax),%eax
  403fdb:	89 c7                	mov    %eax,%edi
  403fdd:	e8 5e de ff ff       	callq  401e40 <strerror@plt>
  403fe2:	48 89 c1             	mov    %rax,%rcx
  403fe5:	48 8b 05 d4 3b 20 00 	mov    0x203bd4(%rip),%rax        # 607bc0 <stderr@@GLIBC_2.2.5>
  403fec:	48 8b 55 f8          	mov    -0x8(%rbp),%rdx
  403ff0:	be 00 5e 40 00       	mov    $0x405e00,%esi
  403ff5:	48 89 c7             	mov    %rax,%rdi
  403ff8:	b8 00 00 00 00       	mov    $0x0,%eax
  403ffd:	e8 de e0 ff ff       	callq  4020e0 <fprintf@plt>
  404002:	bf 00 00 00 00       	mov    $0x0,%edi
  404007:	e8 44 dc ff ff       	callq  401c50 <exit@plt>

000000000040400c <posix_error>:
  40400c:	55                   	push   %rbp
  40400d:	48 89 e5             	mov    %rsp,%rbp
  404010:	48 83 ec 10          	sub    $0x10,%rsp
  404014:	89 7d fc             	mov    %edi,-0x4(%rbp)
  404017:	48 89 75 f0          	mov    %rsi,-0x10(%rbp)
  40401b:	8b 45 fc             	mov    -0x4(%rbp),%eax
  40401e:	89 c7                	mov    %eax,%edi
  404020:	e8 1b de ff ff       	callq  401e40 <strerror@plt>
  404025:	48 89 c1             	mov    %rax,%rcx
  404028:	48 8b 05 91 3b 20 00 	mov    0x203b91(%rip),%rax        # 607bc0 <stderr@@GLIBC_2.2.5>
  40402f:	48 8b 55 f0          	mov    -0x10(%rbp),%rdx
  404033:	be 00 5e 40 00       	mov    $0x405e00,%esi
  404038:	48 89 c7             	mov    %rax,%rdi
  40403b:	b8 00 00 00 00       	mov    $0x0,%eax
  404040:	e8 9b e0 ff ff       	callq  4020e0 <fprintf@plt>
  404045:	bf 00 00 00 00       	mov    $0x0,%edi
  40404a:	e8 01 dc ff ff       	callq  401c50 <exit@plt>

000000000040404f <gai_error>:
  40404f:	55                   	push   %rbp
  404050:	48 89 e5             	mov    %rsp,%rbp
  404053:	48 83 ec 10          	sub    $0x10,%rsp
  404057:	89 7d fc             	mov    %edi,-0x4(%rbp)
  40405a:	48 89 75 f0          	mov    %rsi,-0x10(%rbp)
  40405e:	8b 45 fc             	mov    -0x4(%rbp),%eax
  404061:	89 c7                	mov    %eax,%edi
  404063:	e8 68 e0 ff ff       	callq  4020d0 <gai_strerror@plt>
  404068:	48 89 c1             	mov    %rax,%rcx
  40406b:	48 8b 05 4e 3b 20 00 	mov    0x203b4e(%rip),%rax        # 607bc0 <stderr@@GLIBC_2.2.5>
  404072:	48 8b 55 f0          	mov    -0x10(%rbp),%rdx
  404076:	be 00 5e 40 00       	mov    $0x405e00,%esi
  40407b:	48 89 c7             	mov    %rax,%rdi
  40407e:	b8 00 00 00 00       	mov    $0x0,%eax
  404083:	e8 58 e0 ff ff       	callq  4020e0 <fprintf@plt>
  404088:	bf 00 00 00 00       	mov    $0x0,%edi
  40408d:	e8 be db ff ff       	callq  401c50 <exit@plt>

0000000000404092 <app_error>:
  404092:	55                   	push   %rbp
  404093:	48 89 e5             	mov    %rsp,%rbp
  404096:	48 83 ec 10          	sub    $0x10,%rsp
  40409a:	48 89 7d f8          	mov    %rdi,-0x8(%rbp)
  40409e:	48 8b 05 1b 3b 20 00 	mov    0x203b1b(%rip),%rax        # 607bc0 <stderr@@GLIBC_2.2.5>
  4040a5:	48 8b 55 f8          	mov    -0x8(%rbp),%rdx
  4040a9:	be 08 5e 40 00       	mov    $0x405e08,%esi
  4040ae:	48 89 c7             	mov    %rax,%rdi
  4040b1:	b8 00 00 00 00       	mov    $0x0,%eax
  4040b6:	e8 25 e0 ff ff       	callq  4020e0 <fprintf@plt>
  4040bb:	bf 00 00 00 00       	mov    $0x0,%edi
  4040c0:	e8 8b db ff ff       	callq  401c50 <exit@plt>

00000000004040c5 <dns_error>:
  4040c5:	55                   	push   %rbp
  4040c6:	48 89 e5             	mov    %rsp,%rbp
  4040c9:	48 83 ec 10          	sub    $0x10,%rsp
  4040cd:	48 89 7d f8          	mov    %rdi,-0x8(%rbp)
  4040d1:	48 8b 05 e8 3a 20 00 	mov    0x203ae8(%rip),%rax        # 607bc0 <stderr@@GLIBC_2.2.5>
  4040d8:	48 8b 55 f8          	mov    -0x8(%rbp),%rdx
  4040dc:	be 08 5e 40 00       	mov    $0x405e08,%esi
  4040e1:	48 89 c7             	mov    %rax,%rdi
  4040e4:	b8 00 00 00 00       	mov    $0x0,%eax
  4040e9:	e8 f2 df ff ff       	callq  4020e0 <fprintf@plt>
  4040ee:	bf 00 00 00 00       	mov    $0x0,%edi
  4040f3:	e8 58 db ff ff       	callq  401c50 <exit@plt>

00000000004040f8 <Fork>:
  4040f8:	55                   	push   %rbp
  4040f9:	48 89 e5             	mov    %rsp,%rbp
  4040fc:	48 83 ec 10          	sub    $0x10,%rsp
  404100:	e8 5b df ff ff       	callq  402060 <fork@plt>
  404105:	89 45 fc             	mov    %eax,-0x4(%rbp)
  404108:	83 7d fc 00          	cmpl   $0x0,-0x4(%rbp)
  40410c:	79 0a                	jns    404118 <Fork+0x20>
  40410e:	bf 0c 5e 40 00       	mov    $0x405e0c,%edi
  404113:	e8 b0 fe ff ff       	callq  403fc8 <unix_error>
  404118:	8b 45 fc             	mov    -0x4(%rbp),%eax
  40411b:	c9                   	leaveq 
  40411c:	c3                   	retq   

000000000040411d <Execve>:
  40411d:	55                   	push   %rbp
  40411e:	48 89 e5             	mov    %rsp,%rbp
  404121:	48 83 ec 20          	sub    $0x20,%rsp
  404125:	48 89 7d f8          	mov    %rdi,-0x8(%rbp)
  404129:	48 89 75 f0          	mov    %rsi,-0x10(%rbp)
  40412d:	48 89 55 e8          	mov    %rdx,-0x18(%rbp)
  404131:	48 8b 55 e8          	mov    -0x18(%rbp),%rdx
  404135:	48 8b 4d f0          	mov    -0x10(%rbp),%rcx
  404139:	48 8b 45 f8          	mov    -0x8(%rbp),%rax
  40413d:	48 89 ce             	mov    %rcx,%rsi
  404140:	48 89 c7             	mov    %rax,%rdi
  404143:	e8 88 dd ff ff       	callq  401ed0 <execve@plt>
  404148:	85 c0                	test   %eax,%eax
  40414a:	79 0a                	jns    404156 <Execve+0x39>
  40414c:	bf 17 5e 40 00       	mov    $0x405e17,%edi
  404151:	e8 72 fe ff ff       	callq  403fc8 <unix_error>
  404156:	c9                   	leaveq 
  404157:	c3                   	retq   

0000000000404158 <Wait>:
  404158:	55                   	push   %rbp
  404159:	48 89 e5             	mov    %rsp,%rbp
  40415c:	48 83 ec 20          	sub    $0x20,%rsp
  404160:	48 89 7d e8          	mov    %rdi,-0x18(%rbp)
  404164:	48 8b 45 e8          	mov    -0x18(%rbp),%rax
  404168:	48 89 c7             	mov    %rax,%rdi
  40416b:	e8 80 da ff ff       	callq  401bf0 <wait@plt>
  404170:	89 45 fc             	mov    %eax,-0x4(%rbp)
  404173:	83 7d fc 00          	cmpl   $0x0,-0x4(%rbp)
  404177:	79 0a                	jns    404183 <Wait+0x2b>
  404179:	bf 24 5e 40 00       	mov    $0x405e24,%edi
  40417e:	e8 45 fe ff ff       	callq  403fc8 <unix_error>
  404183:	8b 45 fc             	mov    -0x4(%rbp),%eax
  404186:	c9                   	leaveq 
  404187:	c3                   	retq   

0000000000404188 <Waitpid>:
  404188:	55                   	push   %rbp
  404189:	48 89 e5             	mov    %rsp,%rbp
  40418c:	48 83 ec 20          	sub    $0x20,%rsp
  404190:	89 7d ec             	mov    %edi,-0x14(%rbp)
  404193:	48 89 75 e0          	mov    %rsi,-0x20(%rbp)
  404197:	89 55 e8             	mov    %edx,-0x18(%rbp)
  40419a:	8b 55 e8             	mov    -0x18(%rbp),%edx
  40419d:	48 8b 4d e0          	mov    -0x20(%rbp),%rcx
  4041a1:	8b 45 ec             	mov    -0x14(%rbp),%eax
  4041a4:	48 89 ce             	mov    %rcx,%rsi
  4041a7:	89 c7                	mov    %eax,%edi
  4041a9:	e8 52 dd ff ff       	callq  401f00 <waitpid@plt>
  4041ae:	89 45 fc             	mov    %eax,-0x4(%rbp)
  4041b1:	83 7d fc 00          	cmpl   $0x0,-0x4(%rbp)
  4041b5:	79 0a                	jns    4041c1 <Waitpid+0x39>
  4041b7:	bf 2f 5e 40 00       	mov    $0x405e2f,%edi
  4041bc:	e8 07 fe ff ff       	callq  403fc8 <unix_error>
  4041c1:	8b 45 fc             	mov    -0x4(%rbp),%eax
  4041c4:	c9                   	leaveq 
  4041c5:	c3                   	retq   

00000000004041c6 <Kill>:
  4041c6:	55                   	push   %rbp
  4041c7:	48 89 e5             	mov    %rsp,%rbp
  4041ca:	48 83 ec 20          	sub    $0x20,%rsp
  4041ce:	89 7d ec             	mov    %edi,-0x14(%rbp)
  4041d1:	89 75 e8             	mov    %esi,-0x18(%rbp)
  4041d4:	8b 55 e8             	mov    -0x18(%rbp),%edx
  4041d7:	8b 45 ec             	mov    -0x14(%rbp),%eax
  4041da:	89 d6                	mov    %edx,%esi
  4041dc:	89 c7                	mov    %eax,%edi
  4041de:	e8 4d dc ff ff       	callq  401e30 <kill@plt>
  4041e3:	89 45 fc             	mov    %eax,-0x4(%rbp)
  4041e6:	83 7d fc 00          	cmpl   $0x0,-0x4(%rbp)
  4041ea:	79 0a                	jns    4041f6 <Kill+0x30>
  4041ec:	bf 3d 5e 40 00       	mov    $0x405e3d,%edi
  4041f1:	e8 d2 fd ff ff       	callq  403fc8 <unix_error>
  4041f6:	c9                   	leaveq 
  4041f7:	c3                   	retq   

00000000004041f8 <Pause>:
  4041f8:	55                   	push   %rbp
  4041f9:	48 89 e5             	mov    %rsp,%rbp
  4041fc:	e8 af d9 ff ff       	callq  401bb0 <pause@plt>
  404201:	90                   	nop
  404202:	5d                   	pop    %rbp
  404203:	c3                   	retq   

0000000000404204 <Sleep>:
  404204:	55                   	push   %rbp
  404205:	48 89 e5             	mov    %rsp,%rbp
  404208:	48 83 ec 20          	sub    $0x20,%rsp
  40420c:	89 7d ec             	mov    %edi,-0x14(%rbp)
  40420f:	8b 45 ec             	mov    -0x14(%rbp),%eax
  404212:	89 c7                	mov    %eax,%edi
  404214:	e8 e7 db ff ff       	callq  401e00 <sleep@plt>
  404219:	89 45 fc             	mov    %eax,-0x4(%rbp)
  40421c:	8b 45 fc             	mov    -0x4(%rbp),%eax
  40421f:	c9                   	leaveq 
  404220:	c3                   	retq   

0000000000404221 <Alarm>:
  404221:	55                   	push   %rbp
  404222:	48 89 e5             	mov    %rsp,%rbp
  404225:	48 83 ec 10          	sub    $0x10,%rsp
  404229:	89 7d fc             	mov    %edi,-0x4(%rbp)
  40422c:	8b 45 fc             	mov    -0x4(%rbp),%eax
  40422f:	89 c7                	mov    %eax,%edi
  404231:	e8 0a dd ff ff       	callq  401f40 <alarm@plt>
  404236:	c9                   	leaveq 
  404237:	c3                   	retq   

0000000000404238 <Setpgid>:
  404238:	55                   	push   %rbp
  404239:	48 89 e5             	mov    %rsp,%rbp
  40423c:	48 83 ec 20          	sub    $0x20,%rsp
  404240:	89 7d ec             	mov    %edi,-0x14(%rbp)
  404243:	89 75 e8             	mov    %esi,-0x18(%rbp)
  404246:	8b 55 e8             	mov    -0x18(%rbp),%edx
  404249:	8b 45 ec             	mov    -0x14(%rbp),%eax
  40424c:	89 d6                	mov    %edx,%esi
  40424e:	89 c7                	mov    %eax,%edi
  404250:	e8 ab da ff ff       	callq  401d00 <setpgid@plt>
  404255:	89 45 fc             	mov    %eax,-0x4(%rbp)
  404258:	83 7d fc 00          	cmpl   $0x0,-0x4(%rbp)
  40425c:	79 0a                	jns    404268 <Setpgid+0x30>
  40425e:	bf 48 5e 40 00       	mov    $0x405e48,%edi
  404263:	e8 60 fd ff ff       	callq  403fc8 <unix_error>
  404268:	90                   	nop
  404269:	c9                   	leaveq 
  40426a:	c3                   	retq   

000000000040426b <Getpgrp>:
  40426b:	55                   	push   %rbp
  40426c:	48 89 e5             	mov    %rsp,%rbp
  40426f:	e8 8c d9 ff ff       	callq  401c00 <getpgrp@plt>
  404274:	5d                   	pop    %rbp
  404275:	c3                   	retq   

0000000000404276 <Signal>:
  404276:	55                   	push   %rbp
  404277:	48 89 e5             	mov    %rsp,%rbp
  40427a:	48 81 ec 50 01 00 00 	sub    $0x150,%rsp
  404281:	89 bd bc fe ff ff    	mov    %edi,-0x144(%rbp)
  404287:	48 89 b5 b0 fe ff ff 	mov    %rsi,-0x150(%rbp)
  40428e:	48 8b 85 b0 fe ff ff 	mov    -0x150(%rbp),%rax
  404295:	48 89 85 60 ff ff ff 	mov    %rax,-0xa0(%rbp)
  40429c:	48 8d 85 60 ff ff ff 	lea    -0xa0(%rbp),%rax
  4042a3:	48 83 c0 08          	add    $0x8,%rax
  4042a7:	48 89 c7             	mov    %rax,%rdi
  4042aa:	e8 c1 dd ff ff       	callq  402070 <sigemptyset@plt>
  4042af:	c7 45 e8 00 00 00 10 	movl   $0x10000000,-0x18(%rbp)
  4042b6:	48 8d 95 c0 fe ff ff 	lea    -0x140(%rbp),%rdx
  4042bd:	48 8d 8d 60 ff ff ff 	lea    -0xa0(%rbp),%rcx
  4042c4:	8b 85 bc fe ff ff    	mov    -0x144(%rbp),%eax
  4042ca:	48 89 ce             	mov    %rcx,%rsi
  4042cd:	89 c7                	mov    %eax,%edi
  4042cf:	e8 9c db ff ff       	callq  401e70 <sigaction@plt>
  4042d4:	85 c0                	test   %eax,%eax
  4042d6:	79 0a                	jns    4042e2 <Signal+0x6c>
  4042d8:	bf 56 5e 40 00       	mov    $0x405e56,%edi
  4042dd:	e8 e6 fc ff ff       	callq  403fc8 <unix_error>
  4042e2:	48 8b 85 c0 fe ff ff 	mov    -0x140(%rbp),%rax
  4042e9:	c9                   	leaveq 
  4042ea:	c3                   	retq   

00000000004042eb <Sigprocmask>:
  4042eb:	55                   	push   %rbp
  4042ec:	48 89 e5             	mov    %rsp,%rbp
  4042ef:	48 83 ec 20          	sub    $0x20,%rsp
  4042f3:	89 7d fc             	mov    %edi,-0x4(%rbp)
  4042f6:	48 89 75 f0          	mov    %rsi,-0x10(%rbp)
  4042fa:	48 89 55 e8          	mov    %rdx,-0x18(%rbp)
  4042fe:	48 8b 55 e8          	mov    -0x18(%rbp),%rdx
  404302:	48 8b 4d f0          	mov    -0x10(%rbp),%rcx
  404306:	8b 45 fc             	mov    -0x4(%rbp),%eax
  404309:	48 89 ce             	mov    %rcx,%rsi
  40430c:	89 c7                	mov    %eax,%edi
  40430e:	e8 4d db ff ff       	callq  401e60 <sigprocmask@plt>
  404313:	85 c0                	test   %eax,%eax
  404315:	79 0a                	jns    404321 <Sigprocmask+0x36>
  404317:	bf 63 5e 40 00       	mov    $0x405e63,%edi
  40431c:	e8 a7 fc ff ff       	callq  403fc8 <unix_error>
  404321:	90                   	nop
  404322:	c9                   	leaveq 
  404323:	c3                   	retq   

0000000000404324 <Sigemptyset>:
  404324:	55                   	push   %rbp
  404325:	48 89 e5             	mov    %rsp,%rbp
  404328:	48 83 ec 10          	sub    $0x10,%rsp
  40432c:	48 89 7d f8          	mov    %rdi,-0x8(%rbp)
  404330:	48 8b 45 f8          	mov    -0x8(%rbp),%rax
  404334:	48 89 c7             	mov    %rax,%rdi
  404337:	e8 34 dd ff ff       	callq  402070 <sigemptyset@plt>
  40433c:	85 c0                	test   %eax,%eax
  40433e:	79 0a                	jns    40434a <Sigemptyset+0x26>
  404340:	bf 75 5e 40 00       	mov    $0x405e75,%edi
  404345:	e8 7e fc ff ff       	callq  403fc8 <unix_error>
  40434a:	90                   	nop
  40434b:	c9                   	leaveq 
  40434c:	c3                   	retq   

000000000040434d <Sigfillset>:
  40434d:	55                   	push   %rbp
  40434e:	48 89 e5             	mov    %rsp,%rbp
  404351:	48 83 ec 10          	sub    $0x10,%rsp
  404355:	48 89 7d f8          	mov    %rdi,-0x8(%rbp)
  404359:	48 8b 45 f8          	mov    -0x8(%rbp),%rax
  40435d:	48 89 c7             	mov    %rax,%rdi
  404360:	e8 4b d9 ff ff       	callq  401cb0 <sigfillset@plt>
  404365:	85 c0                	test   %eax,%eax
  404367:	79 0a                	jns    404373 <Sigfillset+0x26>
  404369:	bf 87 5e 40 00       	mov    $0x405e87,%edi
  40436e:	e8 55 fc ff ff       	callq  403fc8 <unix_error>
  404373:	90                   	nop
  404374:	c9                   	leaveq 
  404375:	c3                   	retq   

0000000000404376 <Sigaddset>:
  404376:	55                   	push   %rbp
  404377:	48 89 e5             	mov    %rsp,%rbp
  40437a:	48 83 ec 10          	sub    $0x10,%rsp
  40437e:	48 89 7d f8          	mov    %rdi,-0x8(%rbp)
  404382:	89 75 f4             	mov    %esi,-0xc(%rbp)
  404385:	8b 55 f4             	mov    -0xc(%rbp),%edx
  404388:	48 8b 45 f8          	mov    -0x8(%rbp),%rax
  40438c:	89 d6                	mov    %edx,%esi
  40438e:	48 89 c7             	mov    %rax,%rdi
  404391:	e8 ca db ff ff       	callq  401f60 <sigaddset@plt>
  404396:	85 c0                	test   %eax,%eax
  404398:	79 0a                	jns    4043a4 <Sigaddset+0x2e>
  40439a:	bf 98 5e 40 00       	mov    $0x405e98,%edi
  40439f:	e8 24 fc ff ff       	callq  403fc8 <unix_error>
  4043a4:	90                   	nop
  4043a5:	c9                   	leaveq 
  4043a6:	c3                   	retq   

00000000004043a7 <Sigdelset>:
  4043a7:	55                   	push   %rbp
  4043a8:	48 89 e5             	mov    %rsp,%rbp
  4043ab:	48 83 ec 10          	sub    $0x10,%rsp
  4043af:	48 89 7d f8          	mov    %rdi,-0x8(%rbp)
  4043b3:	89 75 f4             	mov    %esi,-0xc(%rbp)
  4043b6:	8b 55 f4             	mov    -0xc(%rbp),%edx
  4043b9:	48 8b 45 f8          	mov    -0x8(%rbp),%rax
  4043bd:	89 d6                	mov    %edx,%esi
  4043bf:	48 89 c7             	mov    %rax,%rdi
  4043c2:	e8 e9 dc ff ff       	callq  4020b0 <sigdelset@plt>
  4043c7:	85 c0                	test   %eax,%eax
  4043c9:	79 0a                	jns    4043d5 <Sigdelset+0x2e>
  4043cb:	bf a8 5e 40 00       	mov    $0x405ea8,%edi
  4043d0:	e8 f3 fb ff ff       	callq  403fc8 <unix_error>
  4043d5:	90                   	nop
  4043d6:	c9                   	leaveq 
  4043d7:	c3                   	retq   

00000000004043d8 <Sigismember>:
  4043d8:	55                   	push   %rbp
  4043d9:	48 89 e5             	mov    %rsp,%rbp
  4043dc:	48 83 ec 20          	sub    $0x20,%rsp
  4043e0:	48 89 7d e8          	mov    %rdi,-0x18(%rbp)
  4043e4:	89 75 e4             	mov    %esi,-0x1c(%rbp)
  4043e7:	8b 55 e4             	mov    -0x1c(%rbp),%edx
  4043ea:	48 8b 45 e8          	mov    -0x18(%rbp),%rax
  4043ee:	89 d6                	mov    %edx,%esi
  4043f0:	48 89 c7             	mov    %rax,%rdi
  4043f3:	e8 e8 d8 ff ff       	callq  401ce0 <sigismember@plt>
  4043f8:	89 45 fc             	mov    %eax,-0x4(%rbp)
  4043fb:	83 7d fc 00          	cmpl   $0x0,-0x4(%rbp)
  4043ff:	79 0a                	jns    40440b <Sigismember+0x33>
  404401:	bf b8 5e 40 00       	mov    $0x405eb8,%edi
  404406:	e8 bd fb ff ff       	callq  403fc8 <unix_error>
  40440b:	8b 45 fc             	mov    -0x4(%rbp),%eax
  40440e:	c9                   	leaveq 
  40440f:	c3                   	retq   

0000000000404410 <Sigsuspend>:
  404410:	55                   	push   %rbp
  404411:	48 89 e5             	mov    %rsp,%rbp
  404414:	48 83 ec 20          	sub    $0x20,%rsp
  404418:	48 89 7d e8          	mov    %rdi,-0x18(%rbp)
  40441c:	48 8b 45 e8          	mov    -0x18(%rbp),%rax
  404420:	48 89 c7             	mov    %rax,%rdi
  404423:	e8 f8 d8 ff ff       	callq  401d20 <sigsuspend@plt>
  404428:	89 45 fc             	mov    %eax,-0x4(%rbp)
  40442b:	e8 20 db ff ff       	callq  401f50 <__errno_location@plt>
  404430:	8b 00                	mov    (%rax),%eax
  404432:	83 f8 04             	cmp    $0x4,%eax
  404435:	74 0a                	je     404441 <Sigsuspend+0x31>
  404437:	bf ca 5e 40 00       	mov    $0x405eca,%edi
  40443c:	e8 87 fb ff ff       	callq  403fc8 <unix_error>
  404441:	8b 45 fc             	mov    -0x4(%rbp),%eax
  404444:	c9                   	leaveq 
  404445:	c3                   	retq   

0000000000404446 <sio_reverse>:
  404446:	55                   	push   %rbp
  404447:	48 89 e5             	mov    %rsp,%rbp
  40444a:	48 83 ec 20          	sub    $0x20,%rsp
  40444e:	48 89 7d e8          	mov    %rdi,-0x18(%rbp)
  404452:	c7 45 fc 00 00 00 00 	movl   $0x0,-0x4(%rbp)
  404459:	48 8b 45 e8          	mov    -0x18(%rbp),%rax
  40445d:	48 89 c7             	mov    %rax,%rdi
  404460:	e8 eb d8 ff ff       	callq  401d50 <strlen@plt>
  404465:	83 e8 01             	sub    $0x1,%eax
  404468:	89 45 f8             	mov    %eax,-0x8(%rbp)
  40446b:	eb 4f                	jmp    4044bc <sio_reverse+0x76>
  40446d:	8b 45 fc             	mov    -0x4(%rbp),%eax
  404470:	48 63 d0             	movslq %eax,%rdx
  404473:	48 8b 45 e8          	mov    -0x18(%rbp),%rax
  404477:	48 01 d0             	add    %rdx,%rax
  40447a:	0f b6 00             	movzbl (%rax),%eax
  40447d:	0f be c0             	movsbl %al,%eax
  404480:	89 45 f4             	mov    %eax,-0xc(%rbp)
  404483:	8b 45 fc             	mov    -0x4(%rbp),%eax
  404486:	48 63 d0             	movslq %eax,%rdx
  404489:	48 8b 45 e8          	mov    -0x18(%rbp),%rax
  40448d:	48 01 c2             	add    %rax,%rdx
  404490:	8b 45 f8             	mov    -0x8(%rbp),%eax
  404493:	48 63 c8             	movslq %eax,%rcx
  404496:	48 8b 45 e8          	mov    -0x18(%rbp),%rax
  40449a:	48 01 c8             	add    %rcx,%rax
  40449d:	0f b6 00             	movzbl (%rax),%eax
  4044a0:	88 02                	mov    %al,(%rdx)
  4044a2:	8b 45 f8             	mov    -0x8(%rbp),%eax
  4044a5:	48 63 d0             	movslq %eax,%rdx
  4044a8:	48 8b 45 e8          	mov    -0x18(%rbp),%rax
  4044ac:	48 01 c2             	add    %rax,%rdx
  4044af:	8b 45 f4             	mov    -0xc(%rbp),%eax
  4044b2:	88 02                	mov    %al,(%rdx)
  4044b4:	83 45 fc 01          	addl   $0x1,-0x4(%rbp)
  4044b8:	83 6d f8 01          	subl   $0x1,-0x8(%rbp)
  4044bc:	8b 45 fc             	mov    -0x4(%rbp),%eax
  4044bf:	3b 45 f8             	cmp    -0x8(%rbp),%eax
  4044c2:	7c a9                	jl     40446d <sio_reverse+0x27>
  4044c4:	c9                   	leaveq 
  4044c5:	c3                   	retq   

00000000004044c6 <sio_ltoa>:
  4044c6:	55                   	push   %rbp
  4044c7:	48 89 e5             	mov    %rsp,%rbp
  4044ca:	53                   	push   %rbx
  4044cb:	48 83 ec 38          	sub    $0x38,%rsp
  4044cf:	48 89 7d d8          	mov    %rdi,-0x28(%rbp)
  4044d3:	48 89 75 d0          	mov    %rsi,-0x30(%rbp)
  4044d7:	89 55 cc             	mov    %edx,-0x34(%rbp)
  4044da:	c7 45 ec 00 00 00 00 	movl   $0x0,-0x14(%rbp)
  4044e1:	8b 45 ec             	mov    -0x14(%rbp),%eax
  4044e4:	8d 50 01             	lea    0x1(%rax),%edx
  4044e7:	89 55 ec             	mov    %edx,-0x14(%rbp)
  4044ea:	48 63 d0             	movslq %eax,%rdx
  4044ed:	48 8b 45 d0          	mov    -0x30(%rbp),%rax
  4044f1:	48 8d 0c 02          	lea    (%rdx,%rax,1),%rcx
  4044f5:	8b 45 cc             	mov    -0x34(%rbp),%eax
  4044f8:	48 63 f0             	movslq %eax,%rsi
  4044fb:	48 8b 45 d8          	mov    -0x28(%rbp),%rax
  4044ff:	48 99                	cqto   
  404501:	48 f7 fe             	idiv   %rsi
  404504:	48 89 d0             	mov    %rdx,%rax
  404507:	89 45 e8             	mov    %eax,-0x18(%rbp)
  40450a:	83 7d e8 09          	cmpl   $0x9,-0x18(%rbp)
  40450e:	7f 08                	jg     404518 <sio_ltoa+0x52>
  404510:	8b 45 e8             	mov    -0x18(%rbp),%eax
  404513:	83 c0 30             	add    $0x30,%eax
  404516:	eb 06                	jmp    40451e <sio_ltoa+0x58>
  404518:	8b 45 e8             	mov    -0x18(%rbp),%eax
  40451b:	83 c0 57             	add    $0x57,%eax
  40451e:	88 01                	mov    %al,(%rcx)
  404520:	8b 45 cc             	mov    -0x34(%rbp),%eax
  404523:	48 63 d8             	movslq %eax,%rbx
  404526:	48 8b 45 d8          	mov    -0x28(%rbp),%rax
  40452a:	48 99                	cqto   
  40452c:	48 f7 fb             	idiv   %rbx
  40452f:	48 89 45 d8          	mov    %rax,-0x28(%rbp)
  404533:	48 83 7d d8 00       	cmpq   $0x0,-0x28(%rbp)
  404538:	7f a7                	jg     4044e1 <sio_ltoa+0x1b>
  40453a:	8b 45 ec             	mov    -0x14(%rbp),%eax
  40453d:	48 63 d0             	movslq %eax,%rdx
  404540:	48 8b 45 d0          	mov    -0x30(%rbp),%rax
  404544:	48 01 d0             	add    %rdx,%rax
  404547:	c6 00 00             	movb   $0x0,(%rax)
  40454a:	48 8b 45 d0          	mov    -0x30(%rbp),%rax
  40454e:	48 89 c7             	mov    %rax,%rdi
  404551:	e8 f0 fe ff ff       	callq  404446 <sio_reverse>
  404556:	48 83 c4 38          	add    $0x38,%rsp
  40455a:	5b                   	pop    %rbx
  40455b:	5d                   	pop    %rbp
  40455c:	c3                   	retq   

000000000040455d <sio_strlen>:
  40455d:	55                   	push   %rbp
  40455e:	48 89 e5             	mov    %rsp,%rbp
  404561:	48 89 7d e8          	mov    %rdi,-0x18(%rbp)
  404565:	c7 45 fc 00 00 00 00 	movl   $0x0,-0x4(%rbp)
  40456c:	eb 04                	jmp    404572 <sio_strlen+0x15>
  40456e:	83 45 fc 01          	addl   $0x1,-0x4(%rbp)
  404572:	8b 45 fc             	mov    -0x4(%rbp),%eax
  404575:	48 63 d0             	movslq %eax,%rdx
  404578:	48 8b 45 e8          	mov    -0x18(%rbp),%rax
  40457c:	48 01 d0             	add    %rdx,%rax
  40457f:	0f b6 00             	movzbl (%rax),%eax
  404582:	84 c0                	test   %al,%al
  404584:	75 e8                	jne    40456e <sio_strlen+0x11>
  404586:	8b 45 fc             	mov    -0x4(%rbp),%eax
  404589:	48 98                	cltq   
  40458b:	5d                   	pop    %rbp
  40458c:	c3                   	retq   

000000000040458d <sio_puts>:
  40458d:	55                   	push   %rbp
  40458e:	48 89 e5             	mov    %rsp,%rbp
  404591:	48 83 ec 10          	sub    $0x10,%rsp
  404595:	48 89 7d f8          	mov    %rdi,-0x8(%rbp)
  404599:	48 8b 45 f8          	mov    -0x8(%rbp),%rax
  40459d:	48 89 c7             	mov    %rax,%rdi
  4045a0:	e8 b8 ff ff ff       	callq  40455d <sio_strlen>
  4045a5:	48 89 c2             	mov    %rax,%rdx
  4045a8:	48 8b 45 f8          	mov    -0x8(%rbp),%rax
  4045ac:	48 89 c6             	mov    %rax,%rsi
  4045af:	bf 01 00 00 00       	mov    $0x1,%edi
  4045b4:	e8 37 db ff ff       	callq  4020f0 <write@plt>
  4045b9:	c9                   	leaveq 
  4045ba:	c3                   	retq   

00000000004045bb <sio_putl>:
  4045bb:	55                   	push   %rbp
  4045bc:	48 89 e5             	mov    %rsp,%rbp
  4045bf:	48 81 ec 90 00 00 00 	sub    $0x90,%rsp
  4045c6:	48 89 bd 78 ff ff ff 	mov    %rdi,-0x88(%rbp)
  4045cd:	48 8d 4d 80          	lea    -0x80(%rbp),%rcx
  4045d1:	48 8b 85 78 ff ff ff 	mov    -0x88(%rbp),%rax
  4045d8:	ba 0a 00 00 00       	mov    $0xa,%edx
  4045dd:	48 89 ce             	mov    %rcx,%rsi
  4045e0:	48 89 c7             	mov    %rax,%rdi
  4045e3:	e8 de fe ff ff       	callq  4044c6 <sio_ltoa>
  4045e8:	48 8d 45 80          	lea    -0x80(%rbp),%rax
  4045ec:	48 89 c7             	mov    %rax,%rdi
  4045ef:	e8 99 ff ff ff       	callq  40458d <sio_puts>
  4045f4:	c9                   	leaveq 
  4045f5:	c3                   	retq   

00000000004045f6 <sio_error>:
  4045f6:	55                   	push   %rbp
  4045f7:	48 89 e5             	mov    %rsp,%rbp
  4045fa:	48 83 ec 10          	sub    $0x10,%rsp
  4045fe:	48 89 7d f8          	mov    %rdi,-0x8(%rbp)
  404602:	48 8b 45 f8          	mov    -0x8(%rbp),%rax
  404606:	48 89 c7             	mov    %rax,%rdi
  404609:	e8 7f ff ff ff       	callq  40458d <sio_puts>
  40460e:	bf 01 00 00 00       	mov    $0x1,%edi
  404613:	e8 b8 d6 ff ff       	callq  401cd0 <_exit@plt>

0000000000404618 <Sio_putl>:
  404618:	55                   	push   %rbp
  404619:	48 89 e5             	mov    %rsp,%rbp
  40461c:	48 83 ec 20          	sub    $0x20,%rsp
  404620:	48 89 7d e8          	mov    %rdi,-0x18(%rbp)
  404624:	48 8b 45 e8          	mov    -0x18(%rbp),%rax
  404628:	48 89 c7             	mov    %rax,%rdi
  40462b:	e8 8b ff ff ff       	callq  4045bb <sio_putl>
  404630:	48 89 45 f8          	mov    %rax,-0x8(%rbp)
  404634:	48 83 7d f8 00       	cmpq   $0x0,-0x8(%rbp)
  404639:	79 0a                	jns    404645 <Sio_putl+0x2d>
  40463b:	bf db 5e 40 00       	mov    $0x405edb,%edi
  404640:	e8 b1 ff ff ff       	callq  4045f6 <sio_error>
  404645:	48 8b 45 f8          	mov    -0x8(%rbp),%rax
  404649:	c9                   	leaveq 
  40464a:	c3                   	retq   

000000000040464b <Sio_puts>:
  40464b:	55                   	push   %rbp
  40464c:	48 89 e5             	mov    %rsp,%rbp
  40464f:	48 83 ec 20          	sub    $0x20,%rsp
  404653:	48 89 7d e8          	mov    %rdi,-0x18(%rbp)
  404657:	48 8b 45 e8          	mov    -0x18(%rbp),%rax
  40465b:	48 89 c7             	mov    %rax,%rdi
  40465e:	e8 2a ff ff ff       	callq  40458d <sio_puts>
  404663:	48 89 45 f8          	mov    %rax,-0x8(%rbp)
  404667:	48 83 7d f8 00       	cmpq   $0x0,-0x8(%rbp)
  40466c:	79 0a                	jns    404678 <Sio_puts+0x2d>
  40466e:	bf ea 5e 40 00       	mov    $0x405eea,%edi
  404673:	e8 7e ff ff ff       	callq  4045f6 <sio_error>
  404678:	48 8b 45 f8          	mov    -0x8(%rbp),%rax
  40467c:	c9                   	leaveq 
  40467d:	c3                   	retq   

000000000040467e <Sio_error>:
  40467e:	55                   	push   %rbp
  40467f:	48 89 e5             	mov    %rsp,%rbp
  404682:	48 83 ec 10          	sub    $0x10,%rsp
  404686:	48 89 7d f8          	mov    %rdi,-0x8(%rbp)
  40468a:	48 8b 45 f8          	mov    -0x8(%rbp),%rax
  40468e:	48 89 c7             	mov    %rax,%rdi
  404691:	e8 60 ff ff ff       	callq  4045f6 <sio_error>
  404696:	c9                   	leaveq 
  404697:	c3                   	retq   

0000000000404698 <Open>:
  404698:	55                   	push   %rbp
  404699:	48 89 e5             	mov    %rsp,%rbp
  40469c:	48 83 ec 20          	sub    $0x20,%rsp
  4046a0:	48 89 7d e8          	mov    %rdi,-0x18(%rbp)
  4046a4:	89 75 e4             	mov    %esi,-0x1c(%rbp)
  4046a7:	89 55 e0             	mov    %edx,-0x20(%rbp)
  4046aa:	8b 55 e0             	mov    -0x20(%rbp),%edx
  4046ad:	8b 4d e4             	mov    -0x1c(%rbp),%ecx
  4046b0:	48 8b 45 e8          	mov    -0x18(%rbp),%rax
  4046b4:	89 ce                	mov    %ecx,%esi
  4046b6:	48 89 c7             	mov    %rax,%rdi
  4046b9:	b8 00 00 00 00       	mov    $0x0,%eax
  4046be:	e8 5d da ff ff       	callq  402120 <open@plt>
  4046c3:	89 45 fc             	mov    %eax,-0x4(%rbp)
  4046c6:	83 7d fc 00          	cmpl   $0x0,-0x4(%rbp)
  4046ca:	79 0a                	jns    4046d6 <Open+0x3e>
  4046cc:	bf f9 5e 40 00       	mov    $0x405ef9,%edi
  4046d1:	e8 f2 f8 ff ff       	callq  403fc8 <unix_error>
  4046d6:	8b 45 fc             	mov    -0x4(%rbp),%eax
  4046d9:	c9                   	leaveq 
  4046da:	c3                   	retq   

00000000004046db <Read>:
  4046db:	55                   	push   %rbp
  4046dc:	48 89 e5             	mov    %rsp,%rbp
  4046df:	48 83 ec 30          	sub    $0x30,%rsp
  4046e3:	89 7d ec             	mov    %edi,-0x14(%rbp)
  4046e6:	48 89 75 e0          	mov    %rsi,-0x20(%rbp)
  4046ea:	48 89 55 d8          	mov    %rdx,-0x28(%rbp)
  4046ee:	48 8b 55 d8          	mov    -0x28(%rbp),%rdx
  4046f2:	48 8b 4d e0          	mov    -0x20(%rbp),%rcx
  4046f6:	8b 45 ec             	mov    -0x14(%rbp),%eax
  4046f9:	48 89 ce             	mov    %rcx,%rsi
  4046fc:	89 c7                	mov    %eax,%edi
  4046fe:	e8 6d d5 ff ff       	callq  401c70 <read@plt>
  404703:	48 89 45 f8          	mov    %rax,-0x8(%rbp)
  404707:	48 83 7d f8 00       	cmpq   $0x0,-0x8(%rbp)
  40470c:	79 0a                	jns    404718 <Read+0x3d>
  40470e:	bf 04 5f 40 00       	mov    $0x405f04,%edi
  404713:	e8 b0 f8 ff ff       	callq  403fc8 <unix_error>
  404718:	48 8b 45 f8          	mov    -0x8(%rbp),%rax
  40471c:	c9                   	leaveq 
  40471d:	c3                   	retq   

000000000040471e <Write>:
  40471e:	55                   	push   %rbp
  40471f:	48 89 e5             	mov    %rsp,%rbp
  404722:	48 83 ec 30          	sub    $0x30,%rsp
  404726:	89 7d ec             	mov    %edi,-0x14(%rbp)
  404729:	48 89 75 e0          	mov    %rsi,-0x20(%rbp)
  40472d:	48 89 55 d8          	mov    %rdx,-0x28(%rbp)
  404731:	48 8b 55 d8          	mov    -0x28(%rbp),%rdx
  404735:	48 8b 4d e0          	mov    -0x20(%rbp),%rcx
  404739:	8b 45 ec             	mov    -0x14(%rbp),%eax
  40473c:	48 89 ce             	mov    %rcx,%rsi
  40473f:	89 c7                	mov    %eax,%edi
  404741:	e8 aa d9 ff ff       	callq  4020f0 <write@plt>
  404746:	48 89 45 f8          	mov    %rax,-0x8(%rbp)
  40474a:	48 83 7d f8 00       	cmpq   $0x0,-0x8(%rbp)
  40474f:	79 0a                	jns    40475b <Write+0x3d>
  404751:	bf 0f 5f 40 00       	mov    $0x405f0f,%edi
  404756:	e8 6d f8 ff ff       	callq  403fc8 <unix_error>
  40475b:	48 8b 45 f8          	mov    -0x8(%rbp),%rax
  40475f:	c9                   	leaveq 
  404760:	c3                   	retq   

0000000000404761 <Lseek>:
  404761:	55                   	push   %rbp
  404762:	48 89 e5             	mov    %rsp,%rbp
  404765:	48 83 ec 20          	sub    $0x20,%rsp
  404769:	89 7d ec             	mov    %edi,-0x14(%rbp)
  40476c:	48 89 75 e0          	mov    %rsi,-0x20(%rbp)
  404770:	89 55 e8             	mov    %edx,-0x18(%rbp)
  404773:	8b 55 e8             	mov    -0x18(%rbp),%edx
  404776:	48 8b 4d e0          	mov    -0x20(%rbp),%rcx
  40477a:	8b 45 ec             	mov    -0x14(%rbp),%eax
  40477d:	48 89 ce             	mov    %rcx,%rsi
  404780:	89 c7                	mov    %eax,%edi
  404782:	e8 29 d7 ff ff       	callq  401eb0 <lseek@plt>
  404787:	48 89 45 f8          	mov    %rax,-0x8(%rbp)
  40478b:	48 83 7d f8 00       	cmpq   $0x0,-0x8(%rbp)
  404790:	79 0a                	jns    40479c <Lseek+0x3b>
  404792:	bf 1b 5f 40 00       	mov    $0x405f1b,%edi
  404797:	e8 2c f8 ff ff       	callq  403fc8 <unix_error>
  40479c:	48 8b 45 f8          	mov    -0x8(%rbp),%rax
  4047a0:	c9                   	leaveq 
  4047a1:	c3                   	retq   

00000000004047a2 <Close>:
  4047a2:	55                   	push   %rbp
  4047a3:	48 89 e5             	mov    %rsp,%rbp
  4047a6:	48 83 ec 20          	sub    $0x20,%rsp
  4047aa:	89 7d ec             	mov    %edi,-0x14(%rbp)
  4047ad:	8b 45 ec             	mov    -0x14(%rbp),%eax
  4047b0:	89 c7                	mov    %eax,%edi
  4047b2:	e8 29 d4 ff ff       	callq  401be0 <close@plt>
  4047b7:	89 45 fc             	mov    %eax,-0x4(%rbp)
  4047ba:	83 7d fc 00          	cmpl   $0x0,-0x4(%rbp)
  4047be:	79 0a                	jns    4047ca <Close+0x28>
  4047c0:	bf 27 5f 40 00       	mov    $0x405f27,%edi
  4047c5:	e8 56 d4 ff ff       	callq  401c20 <puts@plt>
  4047ca:	c9                   	leaveq 
  4047cb:	c3                   	retq   

00000000004047cc <Select>:
  4047cc:	55                   	push   %rbp
  4047cd:	48 89 e5             	mov    %rsp,%rbp
  4047d0:	48 83 ec 40          	sub    $0x40,%rsp
  4047d4:	89 7d ec             	mov    %edi,-0x14(%rbp)
  4047d7:	48 89 75 e0          	mov    %rsi,-0x20(%rbp)
  4047db:	48 89 55 d8          	mov    %rdx,-0x28(%rbp)
  4047df:	48 89 4d d0          	mov    %rcx,-0x30(%rbp)
  4047e3:	4c 89 45 c8          	mov    %r8,-0x38(%rbp)
  4047e7:	48 8b 7d c8          	mov    -0x38(%rbp),%rdi
  4047eb:	48 8b 4d d0          	mov    -0x30(%rbp),%rcx
  4047ef:	48 8b 55 d8          	mov    -0x28(%rbp),%rdx
  4047f3:	48 8b 75 e0          	mov    -0x20(%rbp),%rsi
  4047f7:	8b 45 ec             	mov    -0x14(%rbp),%eax
  4047fa:	49 89 f8             	mov    %rdi,%r8
  4047fd:	89 c7                	mov    %eax,%edi
  4047ff:	e8 3c d4 ff ff       	callq  401c40 <select@plt>
  404804:	89 45 fc             	mov    %eax,-0x4(%rbp)
  404807:	83 7d fc 00          	cmpl   $0x0,-0x4(%rbp)
  40480b:	79 0a                	jns    404817 <Select+0x4b>
  40480d:	bf 33 5f 40 00       	mov    $0x405f33,%edi
  404812:	e8 b1 f7 ff ff       	callq  403fc8 <unix_error>
  404817:	8b 45 fc             	mov    -0x4(%rbp),%eax
  40481a:	c9                   	leaveq 
  40481b:	c3                   	retq   

000000000040481c <Dup2>:
  40481c:	55                   	push   %rbp
  40481d:	48 89 e5             	mov    %rsp,%rbp
  404820:	48 83 ec 20          	sub    $0x20,%rsp
  404824:	89 7d ec             	mov    %edi,-0x14(%rbp)
  404827:	89 75 e8             	mov    %esi,-0x18(%rbp)
  40482a:	8b 55 e8             	mov    -0x18(%rbp),%edx
  40482d:	8b 45 ec             	mov    -0x14(%rbp),%eax
  404830:	89 d6                	mov    %edx,%esi
  404832:	89 c7                	mov    %eax,%edi
  404834:	e8 57 d3 ff ff       	callq  401b90 <dup2@plt>
  404839:	89 45 fc             	mov    %eax,-0x4(%rbp)
  40483c:	83 7d fc 00          	cmpl   $0x0,-0x4(%rbp)
  404840:	79 0a                	jns    40484c <Dup2+0x30>
  404842:	bf 40 5f 40 00       	mov    $0x405f40,%edi
  404847:	e8 7c f7 ff ff       	callq  403fc8 <unix_error>
  40484c:	8b 45 fc             	mov    -0x4(%rbp),%eax
  40484f:	c9                   	leaveq 
  404850:	c3                   	retq   

0000000000404851 <Stat>:
  404851:	55                   	push   %rbp
  404852:	48 89 e5             	mov    %rsp,%rbp
  404855:	48 83 ec 10          	sub    $0x10,%rsp
  404859:	48 89 7d f8          	mov    %rdi,-0x8(%rbp)
  40485d:	48 89 75 f0          	mov    %rsi,-0x10(%rbp)
  404861:	48 8b 55 f0          	mov    -0x10(%rbp),%rdx
  404865:	48 8b 45 f8          	mov    -0x8(%rbp),%rax
  404869:	48 89 d6             	mov    %rdx,%rsi
  40486c:	48 89 c7             	mov    %rax,%rdi
  40486f:	e8 cc 0f 00 00       	callq  405840 <__stat>
  404874:	85 c0                	test   %eax,%eax
  404876:	79 0a                	jns    404882 <Stat+0x31>
  404878:	bf 4b 5f 40 00       	mov    $0x405f4b,%edi
  40487d:	e8 46 f7 ff ff       	callq  403fc8 <unix_error>
  404882:	c9                   	leaveq 
  404883:	c3                   	retq   

0000000000404884 <Fstat>:
  404884:	55                   	push   %rbp
  404885:	48 89 e5             	mov    %rsp,%rbp
  404888:	48 83 ec 10          	sub    $0x10,%rsp
  40488c:	89 7d fc             	mov    %edi,-0x4(%rbp)
  40488f:	48 89 75 f0          	mov    %rsi,-0x10(%rbp)
  404893:	48 8b 55 f0          	mov    -0x10(%rbp),%rdx
  404897:	8b 45 fc             	mov    -0x4(%rbp),%eax
  40489a:	48 89 d6             	mov    %rdx,%rsi
  40489d:	89 c7                	mov    %eax,%edi
  40489f:	e8 ac 0f 00 00       	callq  405850 <__fstat>
  4048a4:	85 c0                	test   %eax,%eax
  4048a6:	79 0a                	jns    4048b2 <Fstat+0x2e>
  4048a8:	bf 56 5f 40 00       	mov    $0x405f56,%edi
  4048ad:	e8 16 f7 ff ff       	callq  403fc8 <unix_error>
  4048b2:	c9                   	leaveq 
  4048b3:	c3                   	retq   

00000000004048b4 <Opendir>:
  4048b4:	55                   	push   %rbp
  4048b5:	48 89 e5             	mov    %rsp,%rbp
  4048b8:	48 83 ec 20          	sub    $0x20,%rsp
  4048bc:	48 89 7d e8          	mov    %rdi,-0x18(%rbp)
  4048c0:	48 8b 45 e8          	mov    -0x18(%rbp),%rax
  4048c4:	48 89 c7             	mov    %rax,%rdi
  4048c7:	e8 b4 d4 ff ff       	callq  401d80 <opendir@plt>
  4048cc:	48 89 45 f8          	mov    %rax,-0x8(%rbp)
  4048d0:	48 83 7d f8 00       	cmpq   $0x0,-0x8(%rbp)
  4048d5:	75 0a                	jne    4048e1 <Opendir+0x2d>
  4048d7:	bf 62 5f 40 00       	mov    $0x405f62,%edi
  4048dc:	e8 e7 f6 ff ff       	callq  403fc8 <unix_error>
  4048e1:	48 8b 45 f8          	mov    -0x8(%rbp),%rax
  4048e5:	c9                   	leaveq 
  4048e6:	c3                   	retq   

00000000004048e7 <Readdir>:
  4048e7:	55                   	push   %rbp
  4048e8:	48 89 e5             	mov    %rsp,%rbp
  4048eb:	48 83 ec 20          	sub    $0x20,%rsp
  4048ef:	48 89 7d e8          	mov    %rdi,-0x18(%rbp)
  4048f3:	e8 58 d6 ff ff       	callq  401f50 <__errno_location@plt>
  4048f8:	c7 00 00 00 00 00    	movl   $0x0,(%rax)
  4048fe:	48 8b 45 e8          	mov    -0x18(%rbp),%rax
  404902:	48 89 c7             	mov    %rax,%rdi
  404905:	e8 b6 d4 ff ff       	callq  401dc0 <readdir@plt>
  40490a:	48 89 45 f8          	mov    %rax,-0x8(%rbp)
  40490e:	48 83 7d f8 00       	cmpq   $0x0,-0x8(%rbp)
  404913:	75 15                	jne    40492a <Readdir+0x43>
  404915:	e8 36 d6 ff ff       	callq  401f50 <__errno_location@plt>
  40491a:	8b 00                	mov    (%rax),%eax
  40491c:	85 c0                	test   %eax,%eax
  40491e:	74 0a                	je     40492a <Readdir+0x43>
  404920:	bf 70 5f 40 00       	mov    $0x405f70,%edi
  404925:	e8 9e f6 ff ff       	callq  403fc8 <unix_error>
  40492a:	48 8b 45 f8          	mov    -0x8(%rbp),%rax
  40492e:	c9                   	leaveq 
  40492f:	c3                   	retq   

0000000000404930 <Closedir>:
  404930:	55                   	push   %rbp
  404931:	48 89 e5             	mov    %rsp,%rbp
  404934:	48 83 ec 20          	sub    $0x20,%rsp
  404938:	48 89 7d e8          	mov    %rdi,-0x18(%rbp)
  40493c:	48 8b 45 e8          	mov    -0x18(%rbp),%rax
  404940:	48 89 c7             	mov    %rax,%rdi
  404943:	e8 08 d7 ff ff       	callq  402050 <closedir@plt>
  404948:	89 45 fc             	mov    %eax,-0x4(%rbp)
  40494b:	83 7d fc 00          	cmpl   $0x0,-0x4(%rbp)
  40494f:	79 0a                	jns    40495b <Closedir+0x2b>
  404951:	bf 7e 5f 40 00       	mov    $0x405f7e,%edi
  404956:	e8 6d f6 ff ff       	callq  403fc8 <unix_error>
  40495b:	8b 45 fc             	mov    -0x4(%rbp),%eax
  40495e:	c9                   	leaveq 
  40495f:	c3                   	retq   

0000000000404960 <Mmap>:
  404960:	55                   	push   %rbp
  404961:	48 89 e5             	mov    %rsp,%rbp
  404964:	48 83 ec 40          	sub    $0x40,%rsp
  404968:	48 89 7d e8          	mov    %rdi,-0x18(%rbp)
  40496c:	48 89 75 e0          	mov    %rsi,-0x20(%rbp)
  404970:	89 55 dc             	mov    %edx,-0x24(%rbp)
  404973:	89 4d d8             	mov    %ecx,-0x28(%rbp)
  404976:	44 89 45 d4          	mov    %r8d,-0x2c(%rbp)
  40497a:	4c 89 4d c8          	mov    %r9,-0x38(%rbp)
  40497e:	4c 8b 45 c8          	mov    -0x38(%rbp),%r8
  404982:	8b 7d d4             	mov    -0x2c(%rbp),%edi
  404985:	8b 4d d8             	mov    -0x28(%rbp),%ecx
  404988:	8b 55 dc             	mov    -0x24(%rbp),%edx
  40498b:	48 8b 75 e0          	mov    -0x20(%rbp),%rsi
  40498f:	48 8b 45 e8          	mov    -0x18(%rbp),%rax
  404993:	4d 89 c1             	mov    %r8,%r9
  404996:	41 89 f8             	mov    %edi,%r8d
  404999:	48 89 c7             	mov    %rax,%rdi
  40499c:	e8 8f d7 ff ff       	callq  402130 <mmap@plt>
  4049a1:	48 89 45 f8          	mov    %rax,-0x8(%rbp)
  4049a5:	48 83 7d f8 ff       	cmpq   $0xffffffffffffffff,-0x8(%rbp)
  4049aa:	75 0a                	jne    4049b6 <Mmap+0x56>
  4049ac:	bf 8d 5f 40 00       	mov    $0x405f8d,%edi
  4049b1:	e8 12 f6 ff ff       	callq  403fc8 <unix_error>
  4049b6:	48 8b 45 f8          	mov    -0x8(%rbp),%rax
  4049ba:	c9                   	leaveq 
  4049bb:	c3                   	retq   

00000000004049bc <Munmap>:
  4049bc:	55                   	push   %rbp
  4049bd:	48 89 e5             	mov    %rsp,%rbp
  4049c0:	48 83 ec 10          	sub    $0x10,%rsp
  4049c4:	48 89 7d f8          	mov    %rdi,-0x8(%rbp)
  4049c8:	48 89 75 f0          	mov    %rsi,-0x10(%rbp)
  4049cc:	48 8b 55 f0          	mov    -0x10(%rbp),%rdx
  4049d0:	48 8b 45 f8          	mov    -0x8(%rbp),%rax
  4049d4:	48 89 d6             	mov    %rdx,%rsi
  4049d7:	48 89 c7             	mov    %rax,%rdi
  4049da:	e8 41 d6 ff ff       	callq  402020 <munmap@plt>
  4049df:	85 c0                	test   %eax,%eax
  4049e1:	79 0a                	jns    4049ed <Munmap+0x31>
  4049e3:	bf 98 5f 40 00       	mov    $0x405f98,%edi
  4049e8:	e8 db f5 ff ff       	callq  403fc8 <unix_error>
  4049ed:	c9                   	leaveq 
  4049ee:	c3                   	retq   

00000000004049ef <Malloc>:
  4049ef:	55                   	push   %rbp
  4049f0:	48 89 e5             	mov    %rsp,%rbp
  4049f3:	48 83 ec 20          	sub    $0x20,%rsp
  4049f7:	48 89 7d e8          	mov    %rdi,-0x18(%rbp)
  4049fb:	48 8b 45 e8          	mov    -0x18(%rbp),%rax
  4049ff:	48 89 c7             	mov    %rax,%rdi
  404a02:	e8 79 d2 ff ff       	callq  401c80 <malloc@plt>
  404a07:	48 89 45 f8          	mov    %rax,-0x8(%rbp)
  404a0b:	48 83 7d f8 00       	cmpq   $0x0,-0x8(%rbp)
  404a10:	75 0a                	jne    404a1c <Malloc+0x2d>
  404a12:	bf a5 5f 40 00       	mov    $0x405fa5,%edi
  404a17:	e8 ac f5 ff ff       	callq  403fc8 <unix_error>
  404a1c:	48 8b 45 f8          	mov    -0x8(%rbp),%rax
  404a20:	c9                   	leaveq 
  404a21:	c3                   	retq   

0000000000404a22 <Realloc>:
  404a22:	55                   	push   %rbp
  404a23:	48 89 e5             	mov    %rsp,%rbp
  404a26:	48 83 ec 20          	sub    $0x20,%rsp
  404a2a:	48 89 7d e8          	mov    %rdi,-0x18(%rbp)
  404a2e:	48 89 75 e0          	mov    %rsi,-0x20(%rbp)
  404a32:	48 8b 55 e0          	mov    -0x20(%rbp),%rdx
  404a36:	48 8b 45 e8          	mov    -0x18(%rbp),%rax
  404a3a:	48 89 d6             	mov    %rdx,%rsi
  404a3d:	48 89 c7             	mov    %rax,%rdi
  404a40:	e8 7b d6 ff ff       	callq  4020c0 <realloc@plt>
  404a45:	48 89 45 f8          	mov    %rax,-0x8(%rbp)
  404a49:	48 83 7d f8 00       	cmpq   $0x0,-0x8(%rbp)
  404a4e:	75 0a                	jne    404a5a <Realloc+0x38>
  404a50:	bf b2 5f 40 00       	mov    $0x405fb2,%edi
  404a55:	e8 6e f5 ff ff       	callq  403fc8 <unix_error>
  404a5a:	48 8b 45 f8          	mov    -0x8(%rbp),%rax
  404a5e:	c9                   	leaveq 
  404a5f:	c3                   	retq   

0000000000404a60 <Calloc>:
  404a60:	55                   	push   %rbp
  404a61:	48 89 e5             	mov    %rsp,%rbp
  404a64:	48 83 ec 20          	sub    $0x20,%rsp
  404a68:	48 89 7d e8          	mov    %rdi,-0x18(%rbp)
  404a6c:	48 89 75 e0          	mov    %rsi,-0x20(%rbp)
  404a70:	48 8b 55 e0          	mov    -0x20(%rbp),%rdx
  404a74:	48 8b 45 e8          	mov    -0x18(%rbp),%rax
  404a78:	48 89 d6             	mov    %rdx,%rsi
  404a7b:	48 89 c7             	mov    %rax,%rdi
  404a7e:	e8 8d d5 ff ff       	callq  402010 <calloc@plt>
  404a83:	48 89 45 f8          	mov    %rax,-0x8(%rbp)
  404a87:	48 83 7d f8 00       	cmpq   $0x0,-0x8(%rbp)
  404a8c:	75 0a                	jne    404a98 <Calloc+0x38>
  404a8e:	bf c0 5f 40 00       	mov    $0x405fc0,%edi
  404a93:	e8 30 f5 ff ff       	callq  403fc8 <unix_error>
  404a98:	48 8b 45 f8          	mov    -0x8(%rbp),%rax
  404a9c:	c9                   	leaveq 
  404a9d:	c3                   	retq   

0000000000404a9e <Free>:
  404a9e:	55                   	push   %rbp
  404a9f:	48 89 e5             	mov    %rsp,%rbp
  404aa2:	48 83 ec 10          	sub    $0x10,%rsp
  404aa6:	48 89 7d f8          	mov    %rdi,-0x8(%rbp)
  404aaa:	48 8b 45 f8          	mov    -0x8(%rbp),%rax
  404aae:	48 89 c7             	mov    %rax,%rdi
  404ab1:	e8 8a d2 ff ff       	callq  401d40 <free@plt>
  404ab6:	c9                   	leaveq 
  404ab7:	c3                   	retq   

0000000000404ab8 <Fclose>:
  404ab8:	55                   	push   %rbp
  404ab9:	48 89 e5             	mov    %rsp,%rbp
  404abc:	48 83 ec 10          	sub    $0x10,%rsp
  404ac0:	48 89 7d f8          	mov    %rdi,-0x8(%rbp)
  404ac4:	48 8b 45 f8          	mov    -0x8(%rbp),%rax
  404ac8:	48 89 c7             	mov    %rax,%rdi
  404acb:	e8 60 d5 ff ff       	callq  402030 <fclose@plt>
  404ad0:	85 c0                	test   %eax,%eax
  404ad2:	74 0a                	je     404ade <Fclose+0x26>
  404ad4:	bf cd 5f 40 00       	mov    $0x405fcd,%edi
  404ad9:	e8 ea f4 ff ff       	callq  403fc8 <unix_error>
  404ade:	c9                   	leaveq 
  404adf:	c3                   	retq   

0000000000404ae0 <Fdopen>:
  404ae0:	55                   	push   %rbp
  404ae1:	48 89 e5             	mov    %rsp,%rbp
  404ae4:	48 83 ec 20          	sub    $0x20,%rsp
  404ae8:	89 7d ec             	mov    %edi,-0x14(%rbp)
  404aeb:	48 89 75 e0          	mov    %rsi,-0x20(%rbp)
  404aef:	48 8b 55 e0          	mov    -0x20(%rbp),%rdx
  404af3:	8b 45 ec             	mov    -0x14(%rbp),%eax
  404af6:	48 89 d6             	mov    %rdx,%rsi
  404af9:	89 c7                	mov    %eax,%edi
  404afb:	e8 e0 d2 ff ff       	callq  401de0 <fdopen@plt>
  404b00:	48 89 45 f8          	mov    %rax,-0x8(%rbp)
  404b04:	48 83 7d f8 00       	cmpq   $0x0,-0x8(%rbp)
  404b09:	75 0a                	jne    404b15 <Fdopen+0x35>
  404b0b:	bf da 5f 40 00       	mov    $0x405fda,%edi
  404b10:	e8 b3 f4 ff ff       	callq  403fc8 <unix_error>
  404b15:	48 8b 45 f8          	mov    -0x8(%rbp),%rax
  404b19:	c9                   	leaveq 
  404b1a:	c3                   	retq   

0000000000404b1b <Fgets>:
  404b1b:	55                   	push   %rbp
  404b1c:	48 89 e5             	mov    %rsp,%rbp
  404b1f:	48 83 ec 30          	sub    $0x30,%rsp
  404b23:	48 89 7d e8          	mov    %rdi,-0x18(%rbp)
  404b27:	89 75 e4             	mov    %esi,-0x1c(%rbp)
  404b2a:	48 89 55 d8          	mov    %rdx,-0x28(%rbp)
  404b2e:	48 8b 55 d8          	mov    -0x28(%rbp),%rdx
  404b32:	8b 4d e4             	mov    -0x1c(%rbp),%ecx
  404b35:	48 8b 45 e8          	mov    -0x18(%rbp),%rax
  404b39:	89 ce                	mov    %ecx,%esi
  404b3b:	48 89 c7             	mov    %rax,%rdi
  404b3e:	e8 cd d1 ff ff       	callq  401d10 <fgets@plt>
  404b43:	48 89 45 f8          	mov    %rax,-0x8(%rbp)
  404b47:	48 83 7d f8 00       	cmpq   $0x0,-0x8(%rbp)
  404b4c:	75 1a                	jne    404b68 <Fgets+0x4d>
  404b4e:	48 8b 45 d8          	mov    -0x28(%rbp),%rax
  404b52:	48 89 c7             	mov    %rax,%rdi
  404b55:	e8 06 d2 ff ff       	callq  401d60 <ferror@plt>
  404b5a:	85 c0                	test   %eax,%eax
  404b5c:	74 0a                	je     404b68 <Fgets+0x4d>
  404b5e:	bf e7 5f 40 00       	mov    $0x405fe7,%edi
  404b63:	e8 2a f5 ff ff       	callq  404092 <app_error>
  404b68:	48 8b 45 f8          	mov    -0x8(%rbp),%rax
  404b6c:	c9                   	leaveq 
  404b6d:	c3                   	retq   

0000000000404b6e <Fopen>:
  404b6e:	55                   	push   %rbp
  404b6f:	48 89 e5             	mov    %rsp,%rbp
  404b72:	48 83 ec 20          	sub    $0x20,%rsp
  404b76:	48 89 7d e8          	mov    %rdi,-0x18(%rbp)
  404b7a:	48 89 75 e0          	mov    %rsi,-0x20(%rbp)
  404b7e:	48 8b 55 e0          	mov    -0x20(%rbp),%rdx
  404b82:	48 8b 45 e8          	mov    -0x18(%rbp),%rax
  404b86:	48 89 d6             	mov    %rdx,%rsi
  404b89:	48 89 c7             	mov    %rax,%rdi
  404b8c:	e8 ff d0 ff ff       	callq  401c90 <fopen@plt>
  404b91:	48 89 45 f8          	mov    %rax,-0x8(%rbp)
  404b95:	48 83 7d f8 00       	cmpq   $0x0,-0x8(%rbp)
  404b9a:	75 0a                	jne    404ba6 <Fopen+0x38>
  404b9c:	bf f3 5f 40 00       	mov    $0x405ff3,%edi
  404ba1:	e8 22 f4 ff ff       	callq  403fc8 <unix_error>
  404ba6:	48 8b 45 f8          	mov    -0x8(%rbp),%rax
  404baa:	c9                   	leaveq 
  404bab:	c3                   	retq   

0000000000404bac <Fputs>:
  404bac:	55                   	push   %rbp
  404bad:	48 89 e5             	mov    %rsp,%rbp
  404bb0:	48 83 ec 10          	sub    $0x10,%rsp
  404bb4:	48 89 7d f8          	mov    %rdi,-0x8(%rbp)
  404bb8:	48 89 75 f0          	mov    %rsi,-0x10(%rbp)
  404bbc:	48 8b 55 f0          	mov    -0x10(%rbp),%rdx
  404bc0:	48 8b 45 f8          	mov    -0x8(%rbp),%rax
  404bc4:	48 89 d6             	mov    %rdx,%rsi
  404bc7:	48 89 c7             	mov    %rax,%rdi
  404bca:	e8 d1 d2 ff ff       	callq  401ea0 <fputs@plt>
  404bcf:	83 f8 ff             	cmp    $0xffffffffffffffff,%eax
  404bd2:	75 0a                	jne    404bde <Fputs+0x32>
  404bd4:	bf ff 5f 40 00       	mov    $0x405fff,%edi
  404bd9:	e8 ea f3 ff ff       	callq  403fc8 <unix_error>
  404bde:	c9                   	leaveq 
  404bdf:	c3                   	retq   

0000000000404be0 <Fread>:
  404be0:	55                   	push   %rbp
  404be1:	48 89 e5             	mov    %rsp,%rbp
  404be4:	48 83 ec 30          	sub    $0x30,%rsp
  404be8:	48 89 7d e8          	mov    %rdi,-0x18(%rbp)
  404bec:	48 89 75 e0          	mov    %rsi,-0x20(%rbp)
  404bf0:	48 89 55 d8          	mov    %rdx,-0x28(%rbp)
  404bf4:	48 89 4d d0          	mov    %rcx,-0x30(%rbp)
  404bf8:	48 8b 4d d0          	mov    -0x30(%rbp),%rcx
  404bfc:	48 8b 55 d8          	mov    -0x28(%rbp),%rdx
  404c00:	48 8b 75 e0          	mov    -0x20(%rbp),%rsi
  404c04:	48 8b 45 e8          	mov    -0x18(%rbp),%rax
  404c08:	48 89 c7             	mov    %rax,%rdi
  404c0b:	e8 10 d3 ff ff       	callq  401f20 <fread@plt>
  404c10:	48 89 45 f8          	mov    %rax,-0x8(%rbp)
  404c14:	48 8b 45 f8          	mov    -0x8(%rbp),%rax
  404c18:	48 3b 45 d8          	cmp    -0x28(%rbp),%rax
  404c1c:	73 1a                	jae    404c38 <Fread+0x58>
  404c1e:	48 8b 45 d0          	mov    -0x30(%rbp),%rax
  404c22:	48 89 c7             	mov    %rax,%rdi
  404c25:	e8 36 d1 ff ff       	callq  401d60 <ferror@plt>
  404c2a:	85 c0                	test   %eax,%eax
  404c2c:	74 0a                	je     404c38 <Fread+0x58>
  404c2e:	bf 0b 60 40 00       	mov    $0x40600b,%edi
  404c33:	e8 90 f3 ff ff       	callq  403fc8 <unix_error>
  404c38:	48 8b 45 f8          	mov    -0x8(%rbp),%rax
  404c3c:	c9                   	leaveq 
  404c3d:	c3                   	retq   

0000000000404c3e <Fwrite>:
  404c3e:	55                   	push   %rbp
  404c3f:	48 89 e5             	mov    %rsp,%rbp
  404c42:	48 83 ec 20          	sub    $0x20,%rsp
  404c46:	48 89 7d f8          	mov    %rdi,-0x8(%rbp)
  404c4a:	48 89 75 f0          	mov    %rsi,-0x10(%rbp)
  404c4e:	48 89 55 e8          	mov    %rdx,-0x18(%rbp)
  404c52:	48 89 4d e0          	mov    %rcx,-0x20(%rbp)
  404c56:	48 8b 4d e0          	mov    -0x20(%rbp),%rcx
  404c5a:	48 8b 55 e8          	mov    -0x18(%rbp),%rdx
  404c5e:	48 8b 75 f0          	mov    -0x10(%rbp),%rsi
  404c62:	48 8b 45 f8          	mov    -0x8(%rbp),%rax
  404c66:	48 89 c7             	mov    %rax,%rdi
  404c69:	e8 22 d4 ff ff       	callq  402090 <fwrite@plt>
  404c6e:	48 3b 45 e8          	cmp    -0x18(%rbp),%rax
  404c72:	73 0a                	jae    404c7e <Fwrite+0x40>
  404c74:	bf 17 60 40 00       	mov    $0x406017,%edi
  404c79:	e8 4a f3 ff ff       	callq  403fc8 <unix_error>
  404c7e:	c9                   	leaveq 
  404c7f:	c3                   	retq   

0000000000404c80 <Socket>:
  404c80:	55                   	push   %rbp
  404c81:	48 89 e5             	mov    %rsp,%rbp
  404c84:	48 83 ec 20          	sub    $0x20,%rsp
  404c88:	89 7d ec             	mov    %edi,-0x14(%rbp)
  404c8b:	89 75 e8             	mov    %esi,-0x18(%rbp)
  404c8e:	89 55 e4             	mov    %edx,-0x1c(%rbp)
  404c91:	8b 55 e4             	mov    -0x1c(%rbp),%edx
  404c94:	8b 4d e8             	mov    -0x18(%rbp),%ecx
  404c97:	8b 45 ec             	mov    -0x14(%rbp),%eax
  404c9a:	89 ce                	mov    %ecx,%esi
  404c9c:	89 c7                	mov    %eax,%edi
  404c9e:	e8 6d d2 ff ff       	callq  401f10 <socket@plt>
  404ca3:	89 45 fc             	mov    %eax,-0x4(%rbp)
  404ca6:	83 7d fc 00          	cmpl   $0x0,-0x4(%rbp)
  404caa:	79 0a                	jns    404cb6 <Socket+0x36>
  404cac:	bf 24 60 40 00       	mov    $0x406024,%edi
  404cb1:	e8 12 f3 ff ff       	callq  403fc8 <unix_error>
  404cb6:	8b 45 fc             	mov    -0x4(%rbp),%eax
  404cb9:	c9                   	leaveq 
  404cba:	c3                   	retq   

0000000000404cbb <Setsockopt>:
  404cbb:	55                   	push   %rbp
  404cbc:	48 89 e5             	mov    %rsp,%rbp
  404cbf:	48 83 ec 30          	sub    $0x30,%rsp
  404cc3:	89 7d ec             	mov    %edi,-0x14(%rbp)
  404cc6:	89 75 e8             	mov    %esi,-0x18(%rbp)
  404cc9:	89 55 e4             	mov    %edx,-0x1c(%rbp)
  404ccc:	48 89 4d d8          	mov    %rcx,-0x28(%rbp)
  404cd0:	44 89 45 e0          	mov    %r8d,-0x20(%rbp)
  404cd4:	8b 7d e0             	mov    -0x20(%rbp),%edi
  404cd7:	48 8b 4d d8          	mov    -0x28(%rbp),%rcx
  404cdb:	8b 55 e4             	mov    -0x1c(%rbp),%edx
  404cde:	8b 75 e8             	mov    -0x18(%rbp),%esi
  404ce1:	8b 45 ec             	mov    -0x14(%rbp),%eax
  404ce4:	41 89 f8             	mov    %edi,%r8d
  404ce7:	89 c7                	mov    %eax,%edi
  404ce9:	e8 02 d0 ff ff       	callq  401cf0 <setsockopt@plt>
  404cee:	89 45 fc             	mov    %eax,-0x4(%rbp)
  404cf1:	83 7d fc 00          	cmpl   $0x0,-0x4(%rbp)
  404cf5:	79 0a                	jns    404d01 <Setsockopt+0x46>
  404cf7:	bf 31 60 40 00       	mov    $0x406031,%edi
  404cfc:	e8 c7 f2 ff ff       	callq  403fc8 <unix_error>
  404d01:	c9                   	leaveq 
  404d02:	c3                   	retq   

0000000000404d03 <Bind>:
  404d03:	55                   	push   %rbp
  404d04:	48 89 e5             	mov    %rsp,%rbp
  404d07:	48 83 ec 20          	sub    $0x20,%rsp
  404d0b:	89 7d ec             	mov    %edi,-0x14(%rbp)
  404d0e:	48 89 75 e0          	mov    %rsi,-0x20(%rbp)
  404d12:	89 55 e8             	mov    %edx,-0x18(%rbp)
  404d15:	8b 55 e8             	mov    -0x18(%rbp),%edx
  404d18:	48 8b 4d e0          	mov    -0x20(%rbp),%rcx
  404d1c:	8b 45 ec             	mov    -0x14(%rbp),%eax
  404d1f:	48 89 ce             	mov    %rcx,%rsi
  404d22:	89 c7                	mov    %eax,%edi
  404d24:	e8 57 d3 ff ff       	callq  402080 <bind@plt>
  404d29:	89 45 fc             	mov    %eax,-0x4(%rbp)
  404d2c:	83 7d fc 00          	cmpl   $0x0,-0x4(%rbp)
  404d30:	79 0a                	jns    404d3c <Bind+0x39>
  404d32:	bf 42 60 40 00       	mov    $0x406042,%edi
  404d37:	e8 8c f2 ff ff       	callq  403fc8 <unix_error>
  404d3c:	c9                   	leaveq 
  404d3d:	c3                   	retq   

0000000000404d3e <Listen>:
  404d3e:	55                   	push   %rbp
  404d3f:	48 89 e5             	mov    %rsp,%rbp
  404d42:	48 83 ec 20          	sub    $0x20,%rsp
  404d46:	89 7d ec             	mov    %edi,-0x14(%rbp)
  404d49:	89 75 e8             	mov    %esi,-0x18(%rbp)
  404d4c:	8b 55 e8             	mov    -0x18(%rbp),%edx
  404d4f:	8b 45 ec             	mov    -0x14(%rbp),%eax
  404d52:	89 d6                	mov    %edx,%esi
  404d54:	89 c7                	mov    %eax,%edi
  404d56:	e8 55 d0 ff ff       	callq  401db0 <listen@plt>
  404d5b:	89 45 fc             	mov    %eax,-0x4(%rbp)
  404d5e:	83 7d fc 00          	cmpl   $0x0,-0x4(%rbp)
  404d62:	79 0a                	jns    404d6e <Listen+0x30>
  404d64:	bf 4d 60 40 00       	mov    $0x40604d,%edi
  404d69:	e8 5a f2 ff ff       	callq  403fc8 <unix_error>
  404d6e:	c9                   	leaveq 
  404d6f:	c3                   	retq   

0000000000404d70 <Accept>:
  404d70:	55                   	push   %rbp
  404d71:	48 89 e5             	mov    %rsp,%rbp
  404d74:	48 83 ec 30          	sub    $0x30,%rsp
  404d78:	89 7d ec             	mov    %edi,-0x14(%rbp)
  404d7b:	48 89 75 e0          	mov    %rsi,-0x20(%rbp)
  404d7f:	48 89 55 d8          	mov    %rdx,-0x28(%rbp)
  404d83:	48 8b 55 d8          	mov    -0x28(%rbp),%rdx
  404d87:	48 8b 4d e0          	mov    -0x20(%rbp),%rcx
  404d8b:	8b 45 ec             	mov    -0x14(%rbp),%eax
  404d8e:	48 89 ce             	mov    %rcx,%rsi
  404d91:	89 c7                	mov    %eax,%edi
  404d93:	e8 68 d3 ff ff       	callq  402100 <accept@plt>
  404d98:	89 45 fc             	mov    %eax,-0x4(%rbp)
  404d9b:	83 7d fc 00          	cmpl   $0x0,-0x4(%rbp)
  404d9f:	79 0a                	jns    404dab <Accept+0x3b>
  404da1:	bf 5a 60 40 00       	mov    $0x40605a,%edi
  404da6:	e8 1d f2 ff ff       	callq  403fc8 <unix_error>
  404dab:	8b 45 fc             	mov    -0x4(%rbp),%eax
  404dae:	c9                   	leaveq 
  404daf:	c3                   	retq   

0000000000404db0 <Connect>:
  404db0:	55                   	push   %rbp
  404db1:	48 89 e5             	mov    %rsp,%rbp
  404db4:	48 83 ec 20          	sub    $0x20,%rsp
  404db8:	89 7d ec             	mov    %edi,-0x14(%rbp)
  404dbb:	48 89 75 e0          	mov    %rsi,-0x20(%rbp)
  404dbf:	89 55 e8             	mov    %edx,-0x18(%rbp)
  404dc2:	8b 55 e8             	mov    -0x18(%rbp),%edx
  404dc5:	48 8b 4d e0          	mov    -0x20(%rbp),%rcx
  404dc9:	8b 45 ec             	mov    -0x14(%rbp),%eax
  404dcc:	48 89 ce             	mov    %rcx,%rsi
  404dcf:	89 c7                	mov    %eax,%edi
  404dd1:	e8 ea d0 ff ff       	callq  401ec0 <connect@plt>
  404dd6:	89 45 fc             	mov    %eax,-0x4(%rbp)
  404dd9:	83 7d fc 00          	cmpl   $0x0,-0x4(%rbp)
  404ddd:	79 0a                	jns    404de9 <Connect+0x39>
  404ddf:	bf 67 60 40 00       	mov    $0x406067,%edi
  404de4:	e8 df f1 ff ff       	callq  403fc8 <unix_error>
  404de9:	c9                   	leaveq 
  404dea:	c3                   	retq   

0000000000404deb <Getaddrinfo>:
  404deb:	55                   	push   %rbp
  404dec:	48 89 e5             	mov    %rsp,%rbp
  404def:	48 83 ec 30          	sub    $0x30,%rsp
  404df3:	48 89 7d e8          	mov    %rdi,-0x18(%rbp)
  404df7:	48 89 75 e0          	mov    %rsi,-0x20(%rbp)
  404dfb:	48 89 55 d8          	mov    %rdx,-0x28(%rbp)
  404dff:	48 89 4d d0          	mov    %rcx,-0x30(%rbp)
  404e03:	48 8b 4d d0          	mov    -0x30(%rbp),%rcx
  404e07:	48 8b 55 d8          	mov    -0x28(%rbp),%rdx
  404e0b:	48 8b 75 e0          	mov    -0x20(%rbp),%rsi
  404e0f:	48 8b 45 e8          	mov    -0x18(%rbp),%rax
  404e13:	48 89 c7             	mov    %rax,%rdi
  404e16:	e8 45 ce ff ff       	callq  401c60 <getaddrinfo@plt>
  404e1b:	89 45 fc             	mov    %eax,-0x4(%rbp)
  404e1e:	83 7d fc 00          	cmpl   $0x0,-0x4(%rbp)
  404e22:	74 1e                	je     404e42 <Getaddrinfo+0x57>
  404e24:	48 8b 05 95 2d 20 00 	mov    0x202d95(%rip),%rax        # 607bc0 <stderr@@GLIBC_2.2.5>
  404e2b:	48 89 c1             	mov    %rax,%rcx
  404e2e:	ba 11 00 00 00       	mov    $0x11,%edx
  404e33:	be 01 00 00 00       	mov    $0x1,%esi
  404e38:	bf 75 60 40 00       	mov    $0x406075,%edi
  404e3d:	e8 4e d2 ff ff       	callq  402090 <fwrite@plt>
  404e42:	c9                   	leaveq 
  404e43:	c3                   	retq   

0000000000404e44 <Getnameinfo>:
  404e44:	55                   	push   %rbp
  404e45:	48 89 e5             	mov    %rsp,%rbp
  404e48:	48 83 ec 50          	sub    $0x50,%rsp
  404e4c:	48 89 7d e8          	mov    %rdi,-0x18(%rbp)
  404e50:	89 75 e4             	mov    %esi,-0x1c(%rbp)
  404e53:	48 89 55 d8          	mov    %rdx,-0x28(%rbp)
  404e57:	48 89 4d d0          	mov    %rcx,-0x30(%rbp)
  404e5b:	4c 89 45 c8          	mov    %r8,-0x38(%rbp)
  404e5f:	4c 89 4d c0          	mov    %r9,-0x40(%rbp)
  404e63:	8b 7d 10             	mov    0x10(%rbp),%edi
  404e66:	48 8b 45 c0          	mov    -0x40(%rbp),%rax
  404e6a:	41 89 c1             	mov    %eax,%r9d
  404e6d:	48 8b 45 d0          	mov    -0x30(%rbp),%rax
  404e71:	89 c1                	mov    %eax,%ecx
  404e73:	4c 8b 45 c8          	mov    -0x38(%rbp),%r8
  404e77:	48 8b 55 d8          	mov    -0x28(%rbp),%rdx
  404e7b:	8b 75 e4             	mov    -0x1c(%rbp),%esi
  404e7e:	48 8b 45 e8          	mov    -0x18(%rbp),%rax
  404e82:	89 3c 24             	mov    %edi,(%rsp)
  404e85:	48 89 c7             	mov    %rax,%rdi
  404e88:	e8 f3 d0 ff ff       	callq  401f80 <getnameinfo@plt>
  404e8d:	89 45 fc             	mov    %eax,-0x4(%rbp)
  404e90:	83 7d fc 00          	cmpl   $0x0,-0x4(%rbp)
  404e94:	74 0f                	je     404ea5 <Getnameinfo+0x61>
  404e96:	8b 45 fc             	mov    -0x4(%rbp),%eax
  404e99:	be 87 60 40 00       	mov    $0x406087,%esi
  404e9e:	89 c7                	mov    %eax,%edi
  404ea0:	e8 aa f1 ff ff       	callq  40404f <gai_error>
  404ea5:	c9                   	leaveq 
  404ea6:	c3                   	retq   

0000000000404ea7 <Freeaddrinfo>:
  404ea7:	55                   	push   %rbp
  404ea8:	48 89 e5             	mov    %rsp,%rbp
  404eab:	48 83 ec 10          	sub    $0x10,%rsp
  404eaf:	48 89 7d f8          	mov    %rdi,-0x8(%rbp)
  404eb3:	48 8b 45 f8          	mov    -0x8(%rbp),%rax
  404eb7:	48 89 c7             	mov    %rax,%rdi
  404eba:	e8 71 ce ff ff       	callq  401d30 <freeaddrinfo@plt>
  404ebf:	c9                   	leaveq 
  404ec0:	c3                   	retq   

0000000000404ec1 <Inet_ntop>:
  404ec1:	55                   	push   %rbp
  404ec2:	48 89 e5             	mov    %rsp,%rbp
  404ec5:	48 83 ec 20          	sub    $0x20,%rsp
  404ec9:	89 7d fc             	mov    %edi,-0x4(%rbp)
  404ecc:	48 89 75 f0          	mov    %rsi,-0x10(%rbp)
  404ed0:	48 89 55 e8          	mov    %rdx,-0x18(%rbp)
  404ed4:	89 4d f8             	mov    %ecx,-0x8(%rbp)
  404ed7:	8b 4d f8             	mov    -0x8(%rbp),%ecx
  404eda:	48 8b 55 e8          	mov    -0x18(%rbp),%rdx
  404ede:	48 8b 75 f0          	mov    -0x10(%rbp),%rsi
  404ee2:	8b 45 fc             	mov    -0x4(%rbp),%eax
  404ee5:	89 c7                	mov    %eax,%edi
  404ee7:	e8 24 d2 ff ff       	callq  402110 <inet_ntop@plt>
  404eec:	48 85 c0             	test   %rax,%rax
  404eef:	75 0a                	jne    404efb <Inet_ntop+0x3a>
  404ef1:	bf 99 60 40 00       	mov    $0x406099,%edi
  404ef6:	e8 cd f0 ff ff       	callq  403fc8 <unix_error>
  404efb:	c9                   	leaveq 
  404efc:	c3                   	retq   

0000000000404efd <Inet_pton>:
  404efd:	55                   	push   %rbp
  404efe:	48 89 e5             	mov    %rsp,%rbp
  404f01:	48 83 ec 30          	sub    $0x30,%rsp
  404f05:	89 7d ec             	mov    %edi,-0x14(%rbp)
  404f08:	48 89 75 e0          	mov    %rsi,-0x20(%rbp)
  404f0c:	48 89 55 d8          	mov    %rdx,-0x28(%rbp)
  404f10:	48 8b 55 d8          	mov    -0x28(%rbp),%rdx
  404f14:	48 8b 4d e0          	mov    -0x20(%rbp),%rcx
  404f18:	8b 45 ec             	mov    -0x14(%rbp),%eax
  404f1b:	48 89 ce             	mov    %rcx,%rsi
  404f1e:	89 c7                	mov    %eax,%edi
  404f20:	e8 ab cc ff ff       	callq  401bd0 <inet_pton@plt>
  404f25:	89 45 fc             	mov    %eax,-0x4(%rbp)
  404f28:	83 7d fc 00          	cmpl   $0x0,-0x4(%rbp)
  404f2c:	75 0c                	jne    404f3a <Inet_pton+0x3d>
  404f2e:	bf b0 60 40 00       	mov    $0x4060b0,%edi
  404f33:	e8 5a f1 ff ff       	callq  404092 <app_error>
  404f38:	eb 10                	jmp    404f4a <Inet_pton+0x4d>
  404f3a:	83 7d fc 00          	cmpl   $0x0,-0x4(%rbp)
  404f3e:	79 0a                	jns    404f4a <Inet_pton+0x4d>
  404f40:	bf e0 60 40 00       	mov    $0x4060e0,%edi
  404f45:	e8 7e f0 ff ff       	callq  403fc8 <unix_error>
  404f4a:	c9                   	leaveq 
  404f4b:	c3                   	retq   

0000000000404f4c <Gethostbyname>:
  404f4c:	55                   	push   %rbp
  404f4d:	48 89 e5             	mov    %rsp,%rbp
  404f50:	48 83 ec 20          	sub    $0x20,%rsp
  404f54:	48 89 7d e8          	mov    %rdi,-0x18(%rbp)
  404f58:	48 8b 45 e8          	mov    -0x18(%rbp),%rax
  404f5c:	48 89 c7             	mov    %rax,%rdi
  404f5f:	e8 ac cc ff ff       	callq  401c10 <gethostbyname@plt>
  404f64:	48 89 45 f8          	mov    %rax,-0x8(%rbp)
  404f68:	48 83 7d f8 00       	cmpq   $0x0,-0x8(%rbp)
  404f6d:	75 0a                	jne    404f79 <Gethostbyname+0x2d>
  404f6f:	bf f0 60 40 00       	mov    $0x4060f0,%edi
  404f74:	e8 4c f1 ff ff       	callq  4040c5 <dns_error>
  404f79:	48 8b 45 f8          	mov    -0x8(%rbp),%rax
  404f7d:	c9                   	leaveq 
  404f7e:	c3                   	retq   

0000000000404f7f <Gethostbyaddr>:
  404f7f:	55                   	push   %rbp
  404f80:	48 89 e5             	mov    %rsp,%rbp
  404f83:	48 83 ec 20          	sub    $0x20,%rsp
  404f87:	48 89 7d e8          	mov    %rdi,-0x18(%rbp)
  404f8b:	89 75 e4             	mov    %esi,-0x1c(%rbp)
  404f8e:	89 55 e0             	mov    %edx,-0x20(%rbp)
  404f91:	8b 4d e4             	mov    -0x1c(%rbp),%ecx
  404f94:	8b 55 e0             	mov    -0x20(%rbp),%edx
  404f97:	48 8b 45 e8          	mov    -0x18(%rbp),%rax
  404f9b:	89 ce                	mov    %ecx,%esi
  404f9d:	48 89 c7             	mov    %rax,%rdi
  404fa0:	e8 fb cd ff ff       	callq  401da0 <gethostbyaddr@plt>
  404fa5:	48 89 45 f8          	mov    %rax,-0x8(%rbp)
  404fa9:	48 83 7d f8 00       	cmpq   $0x0,-0x8(%rbp)
  404fae:	75 0a                	jne    404fba <Gethostbyaddr+0x3b>
  404fb0:	bf 04 61 40 00       	mov    $0x406104,%edi
  404fb5:	e8 0b f1 ff ff       	callq  4040c5 <dns_error>
  404fba:	48 8b 45 f8          	mov    -0x8(%rbp),%rax
  404fbe:	c9                   	leaveq 
  404fbf:	c3                   	retq   

0000000000404fc0 <Pthread_create>:
  404fc0:	55                   	push   %rbp
  404fc1:	48 89 e5             	mov    %rsp,%rbp
  404fc4:	48 83 ec 30          	sub    $0x30,%rsp
  404fc8:	48 89 7d e8          	mov    %rdi,-0x18(%rbp)
  404fcc:	48 89 75 e0          	mov    %rsi,-0x20(%rbp)
  404fd0:	48 89 55 d8          	mov    %rdx,-0x28(%rbp)
  404fd4:	48 89 4d d0          	mov    %rcx,-0x30(%rbp)
  404fd8:	48 8b 4d d0          	mov    -0x30(%rbp),%rcx
  404fdc:	48 8b 55 d8          	mov    -0x28(%rbp),%rdx
  404fe0:	48 8b 75 e0          	mov    -0x20(%rbp),%rsi
  404fe4:	48 8b 45 e8          	mov    -0x18(%rbp),%rax
  404fe8:	48 89 c7             	mov    %rax,%rdi
  404feb:	e8 80 cd ff ff       	callq  401d70 <pthread_create@plt>
  404ff0:	89 45 fc             	mov    %eax,-0x4(%rbp)
  404ff3:	83 7d fc 00          	cmpl   $0x0,-0x4(%rbp)
  404ff7:	74 0f                	je     405008 <Pthread_create+0x48>
  404ff9:	8b 45 fc             	mov    -0x4(%rbp),%eax
  404ffc:	be 18 61 40 00       	mov    $0x406118,%esi
  405001:	89 c7                	mov    %eax,%edi
  405003:	e8 04 f0 ff ff       	callq  40400c <posix_error>
  405008:	c9                   	leaveq 
  405009:	c3                   	retq   

000000000040500a <Pthread_cancel>:
  40500a:	55                   	push   %rbp
  40500b:	48 89 e5             	mov    %rsp,%rbp
  40500e:	48 83 ec 20          	sub    $0x20,%rsp
  405012:	48 89 7d e8          	mov    %rdi,-0x18(%rbp)
  405016:	48 8b 45 e8          	mov    -0x18(%rbp),%rax
  40501a:	48 89 c7             	mov    %rax,%rdi
  40501d:	e8 ae cf ff ff       	callq  401fd0 <pthread_cancel@plt>
  405022:	89 45 fc             	mov    %eax,-0x4(%rbp)
  405025:	83 7d fc 00          	cmpl   $0x0,-0x4(%rbp)
  405029:	74 0f                	je     40503a <Pthread_cancel+0x30>
  40502b:	8b 45 fc             	mov    -0x4(%rbp),%eax
  40502e:	be 2d 61 40 00       	mov    $0x40612d,%esi
  405033:	89 c7                	mov    %eax,%edi
  405035:	e8 d2 ef ff ff       	callq  40400c <posix_error>
  40503a:	c9                   	leaveq 
  40503b:	c3                   	retq   

000000000040503c <Pthread_join>:
  40503c:	55                   	push   %rbp
  40503d:	48 89 e5             	mov    %rsp,%rbp
  405040:	48 83 ec 20          	sub    $0x20,%rsp
  405044:	48 89 7d e8          	mov    %rdi,-0x18(%rbp)
  405048:	48 89 75 e0          	mov    %rsi,-0x20(%rbp)
  40504c:	48 8b 55 e0          	mov    -0x20(%rbp),%rdx
  405050:	48 8b 45 e8          	mov    -0x18(%rbp),%rax
  405054:	48 89 d6             	mov    %rdx,%rsi
  405057:	48 89 c7             	mov    %rax,%rdi
  40505a:	e8 c1 cd ff ff       	callq  401e20 <pthread_join@plt>
  40505f:	89 45 fc             	mov    %eax,-0x4(%rbp)
  405062:	83 7d fc 00          	cmpl   $0x0,-0x4(%rbp)
  405066:	74 0f                	je     405077 <Pthread_join+0x3b>
  405068:	8b 45 fc             	mov    -0x4(%rbp),%eax
  40506b:	be 42 61 40 00       	mov    $0x406142,%esi
  405070:	89 c7                	mov    %eax,%edi
  405072:	e8 95 ef ff ff       	callq  40400c <posix_error>
  405077:	c9                   	leaveq 
  405078:	c3                   	retq   

0000000000405079 <Pthread_detach>:
  405079:	55                   	push   %rbp
  40507a:	48 89 e5             	mov    %rsp,%rbp
  40507d:	48 83 ec 20          	sub    $0x20,%rsp
  405081:	48 89 7d e8          	mov    %rdi,-0x18(%rbp)
  405085:	48 8b 45 e8          	mov    -0x18(%rbp),%rax
  405089:	48 89 c7             	mov    %rax,%rdi
  40508c:	e8 5f cf ff ff       	callq  401ff0 <pthread_detach@plt>
  405091:	89 45 fc             	mov    %eax,-0x4(%rbp)
  405094:	83 7d fc 00          	cmpl   $0x0,-0x4(%rbp)
  405098:	74 0f                	je     4050a9 <Pthread_detach+0x30>
  40509a:	8b 45 fc             	mov    -0x4(%rbp),%eax
  40509d:	be 55 61 40 00       	mov    $0x406155,%esi
  4050a2:	89 c7                	mov    %eax,%edi
  4050a4:	e8 63 ef ff ff       	callq  40400c <posix_error>
  4050a9:	c9                   	leaveq 
  4050aa:	c3                   	retq   

00000000004050ab <Pthread_exit>:
  4050ab:	55                   	push   %rbp
  4050ac:	48 89 e5             	mov    %rsp,%rbp
  4050af:	48 83 ec 10          	sub    $0x10,%rsp
  4050b3:	48 89 7d f8          	mov    %rdi,-0x8(%rbp)
  4050b7:	48 8b 45 f8          	mov    -0x8(%rbp),%rax
  4050bb:	48 89 c7             	mov    %rax,%rdi
  4050be:	e8 cd cd ff ff       	callq  401e90 <pthread_exit@plt>

00000000004050c3 <Pthread_self>:
  4050c3:	55                   	push   %rbp
  4050c4:	48 89 e5             	mov    %rsp,%rbp
  4050c7:	e8 44 cd ff ff       	callq  401e10 <pthread_self@plt>
  4050cc:	5d                   	pop    %rbp
  4050cd:	c3                   	retq   

00000000004050ce <Pthread_once>:
  4050ce:	55                   	push   %rbp
  4050cf:	48 89 e5             	mov    %rsp,%rbp
  4050d2:	48 83 ec 10          	sub    $0x10,%rsp
  4050d6:	48 89 7d f8          	mov    %rdi,-0x8(%rbp)
  4050da:	48 89 75 f0          	mov    %rsi,-0x10(%rbp)
  4050de:	48 8b 55 f0          	mov    -0x10(%rbp),%rdx
  4050e2:	48 8b 45 f8          	mov    -0x8(%rbp),%rax
  4050e6:	48 89 d6             	mov    %rdx,%rsi
  4050e9:	48 89 c7             	mov    %rax,%rdi
  4050ec:	e8 0f cf ff ff       	callq  402000 <pthread_once@plt>
  4050f1:	c9                   	leaveq 
  4050f2:	c3                   	retq   

00000000004050f3 <Sem_init>:
  4050f3:	55                   	push   %rbp
  4050f4:	48 89 e5             	mov    %rsp,%rbp
  4050f7:	48 83 ec 10          	sub    $0x10,%rsp
  4050fb:	48 89 7d f8          	mov    %rdi,-0x8(%rbp)
  4050ff:	89 75 f4             	mov    %esi,-0xc(%rbp)
  405102:	89 55 f0             	mov    %edx,-0x10(%rbp)
  405105:	8b 55 f0             	mov    -0x10(%rbp),%edx
  405108:	8b 4d f4             	mov    -0xc(%rbp),%ecx
  40510b:	48 8b 45 f8          	mov    -0x8(%rbp),%rax
  40510f:	89 ce                	mov    %ecx,%esi
  405111:	48 89 c7             	mov    %rax,%rdi
  405114:	e8 57 ce ff ff       	callq  401f70 <sem_init@plt>
  405119:	85 c0                	test   %eax,%eax
  40511b:	79 0a                	jns    405127 <Sem_init+0x34>
  40511d:	bf 6a 61 40 00       	mov    $0x40616a,%edi
  405122:	e8 a1 ee ff ff       	callq  403fc8 <unix_error>
  405127:	c9                   	leaveq 
  405128:	c3                   	retq   

0000000000405129 <P>:
  405129:	55                   	push   %rbp
  40512a:	48 89 e5             	mov    %rsp,%rbp
  40512d:	48 83 ec 10          	sub    $0x10,%rsp
  405131:	48 89 7d f8          	mov    %rdi,-0x8(%rbp)
  405135:	48 8b 45 f8          	mov    -0x8(%rbp),%rax
  405139:	48 89 c7             	mov    %rax,%rdi
  40513c:	e8 3f ca ff ff       	callq  401b80 <sem_wait@plt>
  405141:	85 c0                	test   %eax,%eax
  405143:	79 0a                	jns    40514f <P+0x26>
  405145:	bf 79 61 40 00       	mov    $0x406179,%edi
  40514a:	e8 79 ee ff ff       	callq  403fc8 <unix_error>
  40514f:	c9                   	leaveq 
  405150:	c3                   	retq   

0000000000405151 <V>:
  405151:	55                   	push   %rbp
  405152:	48 89 e5             	mov    %rsp,%rbp
  405155:	48 83 ec 10          	sub    $0x10,%rsp
  405159:	48 89 7d f8          	mov    %rdi,-0x8(%rbp)
  40515d:	48 8b 45 f8          	mov    -0x8(%rbp),%rax
  405161:	48 89 c7             	mov    %rax,%rdi
  405164:	e8 47 ce ff ff       	callq  401fb0 <sem_post@plt>
  405169:	85 c0                	test   %eax,%eax
  40516b:	79 0a                	jns    405177 <V+0x26>
  40516d:	bf 81 61 40 00       	mov    $0x406181,%edi
  405172:	e8 51 ee ff ff       	callq  403fc8 <unix_error>
  405177:	c9                   	leaveq 
  405178:	c3                   	retq   

0000000000405179 <rio_readn>:
  405179:	55                   	push   %rbp
  40517a:	48 89 e5             	mov    %rsp,%rbp
  40517d:	48 83 ec 40          	sub    $0x40,%rsp
  405181:	89 7d dc             	mov    %edi,-0x24(%rbp)
  405184:	48 89 75 d0          	mov    %rsi,-0x30(%rbp)
  405188:	48 89 55 c8          	mov    %rdx,-0x38(%rbp)
  40518c:	48 8b 45 c8          	mov    -0x38(%rbp),%rax
  405190:	48 89 45 f8          	mov    %rax,-0x8(%rbp)
  405194:	48 8b 45 d0          	mov    -0x30(%rbp),%rax
  405198:	48 89 45 e8          	mov    %rax,-0x18(%rbp)
  40519c:	eb 58                	jmp    4051f6 <rio_readn+0x7d>
  40519e:	48 8b 55 f8          	mov    -0x8(%rbp),%rdx
  4051a2:	48 8b 4d e8          	mov    -0x18(%rbp),%rcx
  4051a6:	8b 45 dc             	mov    -0x24(%rbp),%eax
  4051a9:	48 89 ce             	mov    %rcx,%rsi
  4051ac:	89 c7                	mov    %eax,%edi
  4051ae:	e8 bd ca ff ff       	callq  401c70 <read@plt>
  4051b3:	48 89 45 f0          	mov    %rax,-0x10(%rbp)
  4051b7:	48 83 7d f0 00       	cmpq   $0x0,-0x10(%rbp)
  4051bc:	79 1f                	jns    4051dd <rio_readn+0x64>
  4051be:	e8 8d cd ff ff       	callq  401f50 <__errno_location@plt>
  4051c3:	8b 00                	mov    (%rax),%eax
  4051c5:	83 f8 04             	cmp    $0x4,%eax
  4051c8:	75 0a                	jne    4051d4 <rio_readn+0x5b>
  4051ca:	48 c7 45 f0 00 00 00 	movq   $0x0,-0x10(%rbp)
  4051d1:	00 
  4051d2:	eb 12                	jmp    4051e6 <rio_readn+0x6d>
  4051d4:	48 c7 c0 ff ff ff ff 	mov    $0xffffffffffffffff,%rax
  4051db:	eb 2e                	jmp    40520b <rio_readn+0x92>
  4051dd:	48 83 7d f0 00       	cmpq   $0x0,-0x10(%rbp)
  4051e2:	75 02                	jne    4051e6 <rio_readn+0x6d>
  4051e4:	eb 17                	jmp    4051fd <rio_readn+0x84>
  4051e6:	48 8b 45 f0          	mov    -0x10(%rbp),%rax
  4051ea:	48 29 45 f8          	sub    %rax,-0x8(%rbp)
  4051ee:	48 8b 45 f0          	mov    -0x10(%rbp),%rax
  4051f2:	48 01 45 e8          	add    %rax,-0x18(%rbp)
  4051f6:	48 83 7d f8 00       	cmpq   $0x0,-0x8(%rbp)
  4051fb:	75 a1                	jne    40519e <rio_readn+0x25>
  4051fd:	48 8b 45 f8          	mov    -0x8(%rbp),%rax
  405201:	48 8b 55 c8          	mov    -0x38(%rbp),%rdx
  405205:	48 29 c2             	sub    %rax,%rdx
  405208:	48 89 d0             	mov    %rdx,%rax
  40520b:	c9                   	leaveq 
  40520c:	c3                   	retq   

000000000040520d <rio_writen>:
  40520d:	55                   	push   %rbp
  40520e:	48 89 e5             	mov    %rsp,%rbp
  405211:	48 83 ec 40          	sub    $0x40,%rsp
  405215:	89 7d dc             	mov    %edi,-0x24(%rbp)
  405218:	48 89 75 d0          	mov    %rsi,-0x30(%rbp)
  40521c:	48 89 55 c8          	mov    %rdx,-0x38(%rbp)
  405220:	48 8b 45 c8          	mov    -0x38(%rbp),%rax
  405224:	48 89 45 f8          	mov    %rax,-0x8(%rbp)
  405228:	48 8b 45 d0          	mov    -0x30(%rbp),%rax
  40522c:	48 89 45 e8          	mov    %rax,-0x18(%rbp)
  405230:	eb 4f                	jmp    405281 <rio_writen+0x74>
  405232:	48 8b 55 f8          	mov    -0x8(%rbp),%rdx
  405236:	48 8b 4d e8          	mov    -0x18(%rbp),%rcx
  40523a:	8b 45 dc             	mov    -0x24(%rbp),%eax
  40523d:	48 89 ce             	mov    %rcx,%rsi
  405240:	89 c7                	mov    %eax,%edi
  405242:	e8 a9 ce ff ff       	callq  4020f0 <write@plt>
  405247:	48 89 45 f0          	mov    %rax,-0x10(%rbp)
  40524b:	48 83 7d f0 00       	cmpq   $0x0,-0x10(%rbp)
  405250:	7f 1f                	jg     405271 <rio_writen+0x64>
  405252:	e8 f9 cc ff ff       	callq  401f50 <__errno_location@plt>
  405257:	8b 00                	mov    (%rax),%eax
  405259:	83 f8 04             	cmp    $0x4,%eax
  40525c:	75 0a                	jne    405268 <rio_writen+0x5b>
  40525e:	48 c7 45 f0 00 00 00 	movq   $0x0,-0x10(%rbp)
  405265:	00 
  405266:	eb 09                	jmp    405271 <rio_writen+0x64>
  405268:	48 c7 c0 ff ff ff ff 	mov    $0xffffffffffffffff,%rax
  40526f:	eb 1b                	jmp    40528c <rio_writen+0x7f>
  405271:	48 8b 45 f0          	mov    -0x10(%rbp),%rax
  405275:	48 29 45 f8          	sub    %rax,-0x8(%rbp)
  405279:	48 8b 45 f0          	mov    -0x10(%rbp),%rax
  40527d:	48 01 45 e8          	add    %rax,-0x18(%rbp)
  405281:	48 83 7d f8 00       	cmpq   $0x0,-0x8(%rbp)
  405286:	75 aa                	jne    405232 <rio_writen+0x25>
  405288:	48 8b 45 c8          	mov    -0x38(%rbp),%rax
  40528c:	c9                   	leaveq 
  40528d:	c3                   	retq   

000000000040528e <rio_read>:
  40528e:	55                   	push   %rbp
  40528f:	48 89 e5             	mov    %rsp,%rbp
  405292:	48 83 ec 30          	sub    $0x30,%rsp
  405296:	48 89 7d e8          	mov    %rdi,-0x18(%rbp)
  40529a:	48 89 75 e0          	mov    %rsi,-0x20(%rbp)
  40529e:	48 89 55 d8          	mov    %rdx,-0x28(%rbp)
  4052a2:	eb 6e                	jmp    405312 <rio_read+0x84>
  4052a4:	48 8b 45 e8          	mov    -0x18(%rbp),%rax
  4052a8:	48 8d 48 10          	lea    0x10(%rax),%rcx
  4052ac:	48 8b 45 e8          	mov    -0x18(%rbp),%rax
  4052b0:	8b 00                	mov    (%rax),%eax
  4052b2:	ba 00 20 00 00       	mov    $0x2000,%edx
  4052b7:	48 89 ce             	mov    %rcx,%rsi
  4052ba:	89 c7                	mov    %eax,%edi
  4052bc:	e8 af c9 ff ff       	callq  401c70 <read@plt>
  4052c1:	89 c2                	mov    %eax,%edx
  4052c3:	48 8b 45 e8          	mov    -0x18(%rbp),%rax
  4052c7:	89 50 04             	mov    %edx,0x4(%rax)
  4052ca:	48 8b 45 e8          	mov    -0x18(%rbp),%rax
  4052ce:	8b 40 04             	mov    0x4(%rax),%eax
  4052d1:	85 c0                	test   %eax,%eax
  4052d3:	79 18                	jns    4052ed <rio_read+0x5f>
  4052d5:	e8 76 cc ff ff       	callq  401f50 <__errno_location@plt>
  4052da:	8b 00                	mov    (%rax),%eax
  4052dc:	83 f8 04             	cmp    $0x4,%eax
  4052df:	74 31                	je     405312 <rio_read+0x84>
  4052e1:	48 c7 c0 ff ff ff ff 	mov    $0xffffffffffffffff,%rax
  4052e8:	e9 9d 00 00 00       	jmpq   40538a <rio_read+0xfc>
  4052ed:	48 8b 45 e8          	mov    -0x18(%rbp),%rax
  4052f1:	8b 40 04             	mov    0x4(%rax),%eax
  4052f4:	85 c0                	test   %eax,%eax
  4052f6:	75 0a                	jne    405302 <rio_read+0x74>
  4052f8:	b8 00 00 00 00       	mov    $0x0,%eax
  4052fd:	e9 88 00 00 00       	jmpq   40538a <rio_read+0xfc>
  405302:	48 8b 45 e8          	mov    -0x18(%rbp),%rax
  405306:	48 8d 50 10          	lea    0x10(%rax),%rdx
  40530a:	48 8b 45 e8          	mov    -0x18(%rbp),%rax
  40530e:	48 89 50 08          	mov    %rdx,0x8(%rax)
  405312:	48 8b 45 e8          	mov    -0x18(%rbp),%rax
  405316:	8b 40 04             	mov    0x4(%rax),%eax
  405319:	85 c0                	test   %eax,%eax
  40531b:	7e 87                	jle    4052a4 <rio_read+0x16>
  40531d:	48 8b 45 d8          	mov    -0x28(%rbp),%rax
  405321:	89 45 fc             	mov    %eax,-0x4(%rbp)
  405324:	48 8b 45 e8          	mov    -0x18(%rbp),%rax
  405328:	8b 40 04             	mov    0x4(%rax),%eax
  40532b:	48 98                	cltq   
  40532d:	48 3b 45 d8          	cmp    -0x28(%rbp),%rax
  405331:	73 0a                	jae    40533d <rio_read+0xaf>
  405333:	48 8b 45 e8          	mov    -0x18(%rbp),%rax
  405337:	8b 40 04             	mov    0x4(%rax),%eax
  40533a:	89 45 fc             	mov    %eax,-0x4(%rbp)
  40533d:	8b 45 fc             	mov    -0x4(%rbp),%eax
  405340:	48 63 d0             	movslq %eax,%rdx
  405343:	48 8b 45 e8          	mov    -0x18(%rbp),%rax
  405347:	48 8b 48 08          	mov    0x8(%rax),%rcx
  40534b:	48 8b 45 e0          	mov    -0x20(%rbp),%rax
  40534f:	48 89 ce             	mov    %rcx,%rsi
  405352:	48 89 c7             	mov    %rax,%rdi
  405355:	e8 86 cb ff ff       	callq  401ee0 <memcpy@plt>
  40535a:	48 8b 45 e8          	mov    -0x18(%rbp),%rax
  40535e:	48 8b 50 08          	mov    0x8(%rax),%rdx
  405362:	8b 45 fc             	mov    -0x4(%rbp),%eax
  405365:	48 98                	cltq   
  405367:	48 01 c2             	add    %rax,%rdx
  40536a:	48 8b 45 e8          	mov    -0x18(%rbp),%rax
  40536e:	48 89 50 08          	mov    %rdx,0x8(%rax)
  405372:	48 8b 45 e8          	mov    -0x18(%rbp),%rax
  405376:	8b 40 04             	mov    0x4(%rax),%eax
  405379:	2b 45 fc             	sub    -0x4(%rbp),%eax
  40537c:	89 c2                	mov    %eax,%edx
  40537e:	48 8b 45 e8          	mov    -0x18(%rbp),%rax
  405382:	89 50 04             	mov    %edx,0x4(%rax)
  405385:	8b 45 fc             	mov    -0x4(%rbp),%eax
  405388:	48 98                	cltq   
  40538a:	c9                   	leaveq 
  40538b:	c3                   	retq   

000000000040538c <rio_readinitb>:
  40538c:	55                   	push   %rbp
  40538d:	48 89 e5             	mov    %rsp,%rbp
  405390:	48 89 7d f8          	mov    %rdi,-0x8(%rbp)
  405394:	89 75 f4             	mov    %esi,-0xc(%rbp)
  405397:	48 8b 45 f8          	mov    -0x8(%rbp),%rax
  40539b:	8b 55 f4             	mov    -0xc(%rbp),%edx
  40539e:	89 10                	mov    %edx,(%rax)
  4053a0:	48 8b 45 f8          	mov    -0x8(%rbp),%rax
  4053a4:	c7 40 04 00 00 00 00 	movl   $0x0,0x4(%rax)
  4053ab:	48 8b 45 f8          	mov    -0x8(%rbp),%rax
  4053af:	48 8d 50 10          	lea    0x10(%rax),%rdx
  4053b3:	48 8b 45 f8          	mov    -0x8(%rbp),%rax
  4053b7:	48 89 50 08          	mov    %rdx,0x8(%rax)
  4053bb:	5d                   	pop    %rbp
  4053bc:	c3                   	retq   

00000000004053bd <rio_readnb>:
  4053bd:	55                   	push   %rbp
  4053be:	48 89 e5             	mov    %rsp,%rbp
  4053c1:	48 83 ec 40          	sub    $0x40,%rsp
  4053c5:	48 89 7d d8          	mov    %rdi,-0x28(%rbp)
  4053c9:	48 89 75 d0          	mov    %rsi,-0x30(%rbp)
  4053cd:	48 89 55 c8          	mov    %rdx,-0x38(%rbp)
  4053d1:	48 8b 45 c8          	mov    -0x38(%rbp),%rax
  4053d5:	48 89 45 f8          	mov    %rax,-0x8(%rbp)
  4053d9:	48 8b 45 d0          	mov    -0x30(%rbp),%rax
  4053dd:	48 89 45 f0          	mov    %rax,-0x10(%rbp)
  4053e1:	eb 44                	jmp    405427 <rio_readnb+0x6a>
  4053e3:	48 8b 55 f8          	mov    -0x8(%rbp),%rdx
  4053e7:	48 8b 4d f0          	mov    -0x10(%rbp),%rcx
  4053eb:	48 8b 45 d8          	mov    -0x28(%rbp),%rax
  4053ef:	48 89 ce             	mov    %rcx,%rsi
  4053f2:	48 89 c7             	mov    %rax,%rdi
  4053f5:	e8 94 fe ff ff       	callq  40528e <rio_read>
  4053fa:	48 89 45 e8          	mov    %rax,-0x18(%rbp)
  4053fe:	48 83 7d e8 00       	cmpq   $0x0,-0x18(%rbp)
  405403:	79 09                	jns    40540e <rio_readnb+0x51>
  405405:	48 c7 c0 ff ff ff ff 	mov    $0xffffffffffffffff,%rax
  40540c:	eb 2e                	jmp    40543c <rio_readnb+0x7f>
  40540e:	48 83 7d e8 00       	cmpq   $0x0,-0x18(%rbp)
  405413:	75 02                	jne    405417 <rio_readnb+0x5a>
  405415:	eb 17                	jmp    40542e <rio_readnb+0x71>
  405417:	48 8b 45 e8          	mov    -0x18(%rbp),%rax
  40541b:	48 29 45 f8          	sub    %rax,-0x8(%rbp)
  40541f:	48 8b 45 e8          	mov    -0x18(%rbp),%rax
  405423:	48 01 45 f0          	add    %rax,-0x10(%rbp)
  405427:	48 83 7d f8 00       	cmpq   $0x0,-0x8(%rbp)
  40542c:	75 b5                	jne    4053e3 <rio_readnb+0x26>
  40542e:	48 8b 45 f8          	mov    -0x8(%rbp),%rax
  405432:	48 8b 55 c8          	mov    -0x38(%rbp),%rdx
  405436:	48 29 c2             	sub    %rax,%rdx
  405439:	48 89 d0             	mov    %rdx,%rax
  40543c:	c9                   	leaveq 
  40543d:	c3                   	retq   

000000000040543e <rio_readlineb>:
  40543e:	55                   	push   %rbp
  40543f:	48 89 e5             	mov    %rsp,%rbp
  405442:	48 83 ec 40          	sub    $0x40,%rsp
  405446:	48 89 7d d8          	mov    %rdi,-0x28(%rbp)
  40544a:	48 89 75 d0          	mov    %rsi,-0x30(%rbp)
  40544e:	48 89 55 c8          	mov    %rdx,-0x38(%rbp)
  405452:	48 8b 45 d0          	mov    -0x30(%rbp),%rax
  405456:	48 89 45 f0          	mov    %rax,-0x10(%rbp)
  40545a:	c7 45 fc 01 00 00 00 	movl   $0x1,-0x4(%rbp)
  405461:	eb 63                	jmp    4054c6 <rio_readlineb+0x88>
  405463:	48 8d 4d eb          	lea    -0x15(%rbp),%rcx
  405467:	48 8b 45 d8          	mov    -0x28(%rbp),%rax
  40546b:	ba 01 00 00 00       	mov    $0x1,%edx
  405470:	48 89 ce             	mov    %rcx,%rsi
  405473:	48 89 c7             	mov    %rax,%rdi
  405476:	e8 13 fe ff ff       	callq  40528e <rio_read>
  40547b:	89 45 ec             	mov    %eax,-0x14(%rbp)
  40547e:	83 7d ec 01          	cmpl   $0x1,-0x14(%rbp)
  405482:	75 20                	jne    4054a4 <rio_readlineb+0x66>
  405484:	48 8b 45 f0          	mov    -0x10(%rbp),%rax
  405488:	48 8d 50 01          	lea    0x1(%rax),%rdx
  40548c:	48 89 55 f0          	mov    %rdx,-0x10(%rbp)
  405490:	0f b6 55 eb          	movzbl -0x15(%rbp),%edx
  405494:	88 10                	mov    %dl,(%rax)
  405496:	0f b6 45 eb          	movzbl -0x15(%rbp),%eax
  40549a:	3c 0a                	cmp    $0xa,%al
  40549c:	75 24                	jne    4054c2 <rio_readlineb+0x84>
  40549e:	83 45 fc 01          	addl   $0x1,-0x4(%rbp)
  4054a2:	eb 2d                	jmp    4054d1 <rio_readlineb+0x93>
  4054a4:	83 7d ec 00          	cmpl   $0x0,-0x14(%rbp)
  4054a8:	75 0f                	jne    4054b9 <rio_readlineb+0x7b>
  4054aa:	83 7d fc 01          	cmpl   $0x1,-0x4(%rbp)
  4054ae:	75 07                	jne    4054b7 <rio_readlineb+0x79>
  4054b0:	b8 00 00 00 00       	mov    $0x0,%eax
  4054b5:	eb 29                	jmp    4054e0 <rio_readlineb+0xa2>
  4054b7:	eb 18                	jmp    4054d1 <rio_readlineb+0x93>
  4054b9:	48 c7 c0 ff ff ff ff 	mov    $0xffffffffffffffff,%rax
  4054c0:	eb 1e                	jmp    4054e0 <rio_readlineb+0xa2>
  4054c2:	83 45 fc 01          	addl   $0x1,-0x4(%rbp)
  4054c6:	8b 45 fc             	mov    -0x4(%rbp),%eax
  4054c9:	48 98                	cltq   
  4054cb:	48 3b 45 c8          	cmp    -0x38(%rbp),%rax
  4054cf:	72 92                	jb     405463 <rio_readlineb+0x25>
  4054d1:	48 8b 45 f0          	mov    -0x10(%rbp),%rax
  4054d5:	c6 00 00             	movb   $0x0,(%rax)
  4054d8:	8b 45 fc             	mov    -0x4(%rbp),%eax
  4054db:	83 e8 01             	sub    $0x1,%eax
  4054de:	48 98                	cltq   
  4054e0:	c9                   	leaveq 
  4054e1:	c3                   	retq   

00000000004054e2 <open_clientfd>:
  4054e2:	55                   	push   %rbp
  4054e3:	48 89 e5             	mov    %rsp,%rbp
  4054e6:	48 83 ec 60          	sub    $0x60,%rsp
  4054ea:	48 89 7d a8          	mov    %rdi,-0x58(%rbp)
  4054ee:	48 89 75 a0          	mov    %rsi,-0x60(%rbp)
  4054f2:	48 8d 45 c0          	lea    -0x40(%rbp),%rax
  4054f6:	ba 30 00 00 00       	mov    $0x30,%edx
  4054fb:	be 00 00 00 00       	mov    $0x0,%esi
  405500:	48 89 c7             	mov    %rax,%rdi
  405503:	e8 b8 c6 ff ff       	callq  401bc0 <memset@plt>
  405508:	c7 45 c8 01 00 00 00 	movl   $0x1,-0x38(%rbp)
  40550f:	c7 45 c0 00 04 00 00 	movl   $0x400,-0x40(%rbp)
  405516:	8b 45 c0             	mov    -0x40(%rbp),%eax
  405519:	83 c8 20             	or     $0x20,%eax
  40551c:	89 45 c0             	mov    %eax,-0x40(%rbp)
  40551f:	48 8d 4d b8          	lea    -0x48(%rbp),%rcx
  405523:	48 8d 55 c0          	lea    -0x40(%rbp),%rdx
  405527:	48 8b 75 a0          	mov    -0x60(%rbp),%rsi
  40552b:	48 8b 45 a8          	mov    -0x58(%rbp),%rax
  40552f:	48 89 c7             	mov    %rax,%rdi
  405532:	e8 b4 f8 ff ff       	callq  404deb <Getaddrinfo>
  405537:	48 8b 45 b8          	mov    -0x48(%rbp),%rax
  40553b:	48 89 45 f0          	mov    %rax,-0x10(%rbp)
  40553f:	eb 62                	jmp    4055a3 <open_clientfd+0xc1>
  405541:	48 8b 45 f0          	mov    -0x10(%rbp),%rax
  405545:	8b 50 0c             	mov    0xc(%rax),%edx
  405548:	48 8b 45 f0          	mov    -0x10(%rbp),%rax
  40554c:	8b 48 08             	mov    0x8(%rax),%ecx
  40554f:	48 8b 45 f0          	mov    -0x10(%rbp),%rax
  405553:	8b 40 04             	mov    0x4(%rax),%eax
  405556:	89 ce                	mov    %ecx,%esi
  405558:	89 c7                	mov    %eax,%edi
  40555a:	e8 b1 c9 ff ff       	callq  401f10 <socket@plt>
  40555f:	89 45 fc             	mov    %eax,-0x4(%rbp)
  405562:	83 7d fc 00          	cmpl   $0x0,-0x4(%rbp)
  405566:	79 02                	jns    40556a <open_clientfd+0x88>
  405568:	eb 2d                	jmp    405597 <open_clientfd+0xb5>
  40556a:	48 8b 45 f0          	mov    -0x10(%rbp),%rax
  40556e:	8b 50 10             	mov    0x10(%rax),%edx
  405571:	48 8b 45 f0          	mov    -0x10(%rbp),%rax
  405575:	48 8b 48 18          	mov    0x18(%rax),%rcx
  405579:	8b 45 fc             	mov    -0x4(%rbp),%eax
  40557c:	48 89 ce             	mov    %rcx,%rsi
  40557f:	89 c7                	mov    %eax,%edi
  405581:	e8 3a c9 ff ff       	callq  401ec0 <connect@plt>
  405586:	83 f8 ff             	cmp    $0xffffffffffffffff,%eax
  405589:	74 02                	je     40558d <open_clientfd+0xab>
  40558b:	eb 1d                	jmp    4055aa <open_clientfd+0xc8>
  40558d:	8b 45 fc             	mov    -0x4(%rbp),%eax
  405590:	89 c7                	mov    %eax,%edi
  405592:	e8 0b f2 ff ff       	callq  4047a2 <Close>
  405597:	48 8b 45 f0          	mov    -0x10(%rbp),%rax
  40559b:	48 8b 40 28          	mov    0x28(%rax),%rax
  40559f:	48 89 45 f0          	mov    %rax,-0x10(%rbp)
  4055a3:	48 83 7d f0 00       	cmpq   $0x0,-0x10(%rbp)
  4055a8:	75 97                	jne    405541 <open_clientfd+0x5f>
  4055aa:	48 8b 45 b8          	mov    -0x48(%rbp),%rax
  4055ae:	48 89 c7             	mov    %rax,%rdi
  4055b1:	e8 f1 f8 ff ff       	callq  404ea7 <Freeaddrinfo>
  4055b6:	48 83 7d f0 00       	cmpq   $0x0,-0x10(%rbp)
  4055bb:	75 07                	jne    4055c4 <open_clientfd+0xe2>
  4055bd:	b8 ff ff ff ff       	mov    $0xffffffff,%eax
  4055c2:	eb 03                	jmp    4055c7 <open_clientfd+0xe5>
  4055c4:	8b 45 fc             	mov    -0x4(%rbp),%eax
  4055c7:	c9                   	leaveq 
  4055c8:	c3                   	retq   

00000000004055c9 <open_listenfd>:
  4055c9:	55                   	push   %rbp
  4055ca:	48 89 e5             	mov    %rsp,%rbp
  4055cd:	48 83 ec 60          	sub    $0x60,%rsp
  4055d1:	48 89 7d a8          	mov    %rdi,-0x58(%rbp)
  4055d5:	c7 45 b4 01 00 00 00 	movl   $0x1,-0x4c(%rbp)
  4055dc:	48 8d 45 c0          	lea    -0x40(%rbp),%rax
  4055e0:	ba 30 00 00 00       	mov    $0x30,%edx
  4055e5:	be 00 00 00 00       	mov    $0x0,%esi
  4055ea:	48 89 c7             	mov    %rax,%rdi
  4055ed:	e8 ce c5 ff ff       	callq  401bc0 <memset@plt>
  4055f2:	c7 45 c8 01 00 00 00 	movl   $0x1,-0x38(%rbp)
  4055f9:	c7 45 c0 21 00 00 00 	movl   $0x21,-0x40(%rbp)
  405600:	8b 45 c0             	mov    -0x40(%rbp),%eax
  405603:	80 cc 04             	or     $0x4,%ah
  405606:	89 45 c0             	mov    %eax,-0x40(%rbp)
  405609:	48 8d 4d b8          	lea    -0x48(%rbp),%rcx
  40560d:	48 8d 55 c0          	lea    -0x40(%rbp),%rdx
  405611:	48 8b 45 a8          	mov    -0x58(%rbp),%rax
  405615:	48 89 c6             	mov    %rax,%rsi
  405618:	bf 00 00 00 00       	mov    $0x0,%edi
  40561d:	e8 c9 f7 ff ff       	callq  404deb <Getaddrinfo>
  405622:	48 8b 45 b8          	mov    -0x48(%rbp),%rax
  405626:	48 89 45 f8          	mov    %rax,-0x8(%rbp)
  40562a:	e9 82 00 00 00       	jmpq   4056b1 <open_listenfd+0xe8>
  40562f:	48 8b 45 f8          	mov    -0x8(%rbp),%rax
  405633:	8b 50 0c             	mov    0xc(%rax),%edx
  405636:	48 8b 45 f8          	mov    -0x8(%rbp),%rax
  40563a:	8b 48 08             	mov    0x8(%rax),%ecx
  40563d:	48 8b 45 f8          	mov    -0x8(%rbp),%rax
  405641:	8b 40 04             	mov    0x4(%rax),%eax
  405644:	89 ce                	mov    %ecx,%esi
  405646:	89 c7                	mov    %eax,%edi
  405648:	e8 c3 c8 ff ff       	callq  401f10 <socket@plt>
  40564d:	89 45 f4             	mov    %eax,-0xc(%rbp)
  405650:	83 7d f4 00          	cmpl   $0x0,-0xc(%rbp)
  405654:	79 02                	jns    405658 <open_listenfd+0x8f>
  405656:	eb 4d                	jmp    4056a5 <open_listenfd+0xdc>
  405658:	48 8d 55 b4          	lea    -0x4c(%rbp),%rdx
  40565c:	8b 45 f4             	mov    -0xc(%rbp),%eax
  40565f:	41 b8 04 00 00 00    	mov    $0x4,%r8d
  405665:	48 89 d1             	mov    %rdx,%rcx
  405668:	ba 02 00 00 00       	mov    $0x2,%edx
  40566d:	be 01 00 00 00       	mov    $0x1,%esi
  405672:	89 c7                	mov    %eax,%edi
  405674:	e8 42 f6 ff ff       	callq  404cbb <Setsockopt>
  405679:	48 8b 45 f8          	mov    -0x8(%rbp),%rax
  40567d:	8b 50 10             	mov    0x10(%rax),%edx
  405680:	48 8b 45 f8          	mov    -0x8(%rbp),%rax
  405684:	48 8b 48 18          	mov    0x18(%rax),%rcx
  405688:	8b 45 f4             	mov    -0xc(%rbp),%eax
  40568b:	48 89 ce             	mov    %rcx,%rsi
  40568e:	89 c7                	mov    %eax,%edi
  405690:	e8 eb c9 ff ff       	callq  402080 <bind@plt>
  405695:	85 c0                	test   %eax,%eax
  405697:	75 02                	jne    40569b <open_listenfd+0xd2>
  405699:	eb 21                	jmp    4056bc <open_listenfd+0xf3>
  40569b:	8b 45 f4             	mov    -0xc(%rbp),%eax
  40569e:	89 c7                	mov    %eax,%edi
  4056a0:	e8 fd f0 ff ff       	callq  4047a2 <Close>
  4056a5:	48 8b 45 f8          	mov    -0x8(%rbp),%rax
  4056a9:	48 8b 40 28          	mov    0x28(%rax),%rax
  4056ad:	48 89 45 f8          	mov    %rax,-0x8(%rbp)
  4056b1:	48 83 7d f8 00       	cmpq   $0x0,-0x8(%rbp)
  4056b6:	0f 85 73 ff ff ff    	jne    40562f <open_listenfd+0x66>
  4056bc:	48 8b 45 b8          	mov    -0x48(%rbp),%rax
  4056c0:	48 89 c7             	mov    %rax,%rdi
  4056c3:	e8 df f7 ff ff       	callq  404ea7 <Freeaddrinfo>
  4056c8:	48 83 7d f8 00       	cmpq   $0x0,-0x8(%rbp)
  4056cd:	75 07                	jne    4056d6 <open_listenfd+0x10d>
  4056cf:	b8 ff ff ff ff       	mov    $0xffffffff,%eax
  4056d4:	eb 27                	jmp    4056fd <open_listenfd+0x134>
  4056d6:	8b 45 f4             	mov    -0xc(%rbp),%eax
  4056d9:	be 00 04 00 00       	mov    $0x400,%esi
  4056de:	89 c7                	mov    %eax,%edi
  4056e0:	e8 cb c6 ff ff       	callq  401db0 <listen@plt>
  4056e5:	85 c0                	test   %eax,%eax
  4056e7:	79 11                	jns    4056fa <open_listenfd+0x131>
  4056e9:	8b 45 f4             	mov    -0xc(%rbp),%eax
  4056ec:	89 c7                	mov    %eax,%edi
  4056ee:	e8 af f0 ff ff       	callq  4047a2 <Close>
  4056f3:	b8 ff ff ff ff       	mov    $0xffffffff,%eax
  4056f8:	eb 03                	jmp    4056fd <open_listenfd+0x134>
  4056fa:	8b 45 f4             	mov    -0xc(%rbp),%eax
  4056fd:	c9                   	leaveq 
  4056fe:	c3                   	retq   

00000000004056ff <Open_clientfd>:
  4056ff:	55                   	push   %rbp
  405700:	48 89 e5             	mov    %rsp,%rbp
  405703:	48 83 ec 20          	sub    $0x20,%rsp
  405707:	48 89 7d e8          	mov    %rdi,-0x18(%rbp)
  40570b:	48 89 75 e0          	mov    %rsi,-0x20(%rbp)
  40570f:	48 8b 55 e0          	mov    -0x20(%rbp),%rdx
  405713:	48 8b 45 e8          	mov    -0x18(%rbp),%rax
  405717:	48 89 d6             	mov    %rdx,%rsi
  40571a:	48 89 c7             	mov    %rax,%rdi
  40571d:	e8 c0 fd ff ff       	callq  4054e2 <open_clientfd>
  405722:	89 45 fc             	mov    %eax,-0x4(%rbp)
  405725:	83 7d fc 00          	cmpl   $0x0,-0x4(%rbp)
  405729:	79 1e                	jns    405749 <Open_clientfd+0x4a>
  40572b:	48 8b 05 8e 24 20 00 	mov    0x20248e(%rip),%rax        # 607bc0 <stderr@@GLIBC_2.2.5>
  405732:	48 89 c1             	mov    %rax,%rcx
  405735:	ba 13 00 00 00       	mov    $0x13,%edx
  40573a:	be 01 00 00 00       	mov    $0x1,%esi
  40573f:	bf 89 61 40 00       	mov    $0x406189,%edi
  405744:	e8 47 c9 ff ff       	callq  402090 <fwrite@plt>
  405749:	8b 45 fc             	mov    -0x4(%rbp),%eax
  40574c:	c9                   	leaveq 
  40574d:	c3                   	retq   

000000000040574e <Open_listenfd>:
  40574e:	55                   	push   %rbp
  40574f:	48 89 e5             	mov    %rsp,%rbp
  405752:	48 83 ec 20          	sub    $0x20,%rsp
  405756:	48 89 7d e8          	mov    %rdi,-0x18(%rbp)
  40575a:	48 8b 45 e8          	mov    -0x18(%rbp),%rax
  40575e:	48 89 c7             	mov    %rax,%rdi
  405761:	e8 63 fe ff ff       	callq  4055c9 <open_listenfd>
  405766:	89 45 fc             	mov    %eax,-0x4(%rbp)
  405769:	83 7d fc 00          	cmpl   $0x0,-0x4(%rbp)
  40576d:	79 1e                	jns    40578d <Open_listenfd+0x3f>
  40576f:	48 8b 05 4a 24 20 00 	mov    0x20244a(%rip),%rax        # 607bc0 <stderr@@GLIBC_2.2.5>
  405776:	48 89 c1             	mov    %rax,%rcx
  405779:	ba 13 00 00 00       	mov    $0x13,%edx
  40577e:	be 01 00 00 00       	mov    $0x1,%esi
  405783:	bf 9d 61 40 00       	mov    $0x40619d,%edi
  405788:	e8 03 c9 ff ff       	callq  402090 <fwrite@plt>
  40578d:	8b 45 fc             	mov    -0x4(%rbp),%eax
  405790:	c9                   	leaveq 
  405791:	c3                   	retq   
  405792:	90                   	nop
  405793:	90                   	nop
  405794:	90                   	nop
  405795:	90                   	nop
  405796:	90                   	nop
  405797:	90                   	nop
  405798:	90                   	nop
  405799:	90                   	nop
  40579a:	90                   	nop
  40579b:	90                   	nop
  40579c:	90                   	nop
  40579d:	90                   	nop
  40579e:	90                   	nop
  40579f:	90                   	nop

00000000004057a0 <__libc_csu_fini>:
  4057a0:	f3 c3                	repz retq 
  4057a2:	66 66 66 66 66 2e 0f 	data32 data32 data32 data32 nopw %cs:0x0(%rax,%rax,1)
  4057a9:	1f 84 00 00 00 00 00 

00000000004057b0 <__libc_csu_init>:
  4057b0:	48 89 6c 24 d8       	mov    %rbp,-0x28(%rsp)
  4057b5:	4c 89 64 24 e0       	mov    %r12,-0x20(%rsp)
  4057ba:	48 8d 2d d3 1e 20 00 	lea    0x201ed3(%rip),%rbp        # 607694 <__init_array_end>
  4057c1:	4c 8d 25 cc 1e 20 00 	lea    0x201ecc(%rip),%r12        # 607694 <__init_array_end>
  4057c8:	4c 89 6c 24 e8       	mov    %r13,-0x18(%rsp)
  4057cd:	4c 89 74 24 f0       	mov    %r14,-0x10(%rsp)
  4057d2:	4c 89 7c 24 f8       	mov    %r15,-0x8(%rsp)
  4057d7:	48 89 5c 24 d0       	mov    %rbx,-0x30(%rsp)
  4057dc:	48 83 ec 38          	sub    $0x38,%rsp
  4057e0:	4c 29 e5             	sub    %r12,%rbp
  4057e3:	41 89 fd             	mov    %edi,%r13d
  4057e6:	49 89 f6             	mov    %rsi,%r14
  4057e9:	48 c1 fd 03          	sar    $0x3,%rbp
  4057ed:	49 89 d7             	mov    %rdx,%r15
  4057f0:	e8 63 c3 ff ff       	callq  401b58 <_init>
  4057f5:	48 85 ed             	test   %rbp,%rbp
  4057f8:	74 1c                	je     405816 <__libc_csu_init+0x66>
  4057fa:	31 db                	xor    %ebx,%ebx
  4057fc:	0f 1f 40 00          	nopl   0x0(%rax)
  405800:	4c 89 fa             	mov    %r15,%rdx
  405803:	4c 89 f6             	mov    %r14,%rsi
  405806:	44 89 ef             	mov    %r13d,%edi
  405809:	41 ff 14 dc          	callq  *(%r12,%rbx,8)
  40580d:	48 83 c3 01          	add    $0x1,%rbx
  405811:	48 39 eb             	cmp    %rbp,%rbx
  405814:	72 ea                	jb     405800 <__libc_csu_init+0x50>
  405816:	48 8b 5c 24 08       	mov    0x8(%rsp),%rbx
  40581b:	48 8b 6c 24 10       	mov    0x10(%rsp),%rbp
  405820:	4c 8b 64 24 18       	mov    0x18(%rsp),%r12
  405825:	4c 8b 6c 24 20       	mov    0x20(%rsp),%r13
  40582a:	4c 8b 74 24 28       	mov    0x28(%rsp),%r14
  40582f:	4c 8b 7c 24 30       	mov    0x30(%rsp),%r15
  405834:	48 83 c4 38          	add    $0x38,%rsp
  405838:	c3                   	retq   
  405839:	90                   	nop
  40583a:	90                   	nop
  40583b:	90                   	nop
  40583c:	90                   	nop
  40583d:	90                   	nop
  40583e:	90                   	nop
  40583f:	90                   	nop

0000000000405840 <__stat>:
  405840:	48 89 f2             	mov    %rsi,%rdx
  405843:	48 89 fe             	mov    %rdi,%rsi
  405846:	bf 01 00 00 00       	mov    $0x1,%edi
  40584b:	e9 40 c5 ff ff       	jmpq   401d90 <__xstat@plt>

0000000000405850 <__fstat>:
  405850:	48 89 f2             	mov    %rsi,%rdx
  405853:	89 fe                	mov    %edi,%esi
  405855:	bf 01 00 00 00       	mov    $0x1,%edi
  40585a:	e9 d1 c6 ff ff       	jmpq   401f30 <__fxstat@plt>
  40585f:	90                   	nop

0000000000405860 <__do_global_ctors_aux>:
  405860:	55                   	push   %rbp
  405861:	48 89 e5             	mov    %rsp,%rbp
  405864:	53                   	push   %rbx
  405865:	bb 98 76 60 00       	mov    $0x607698,%ebx
  40586a:	48 83 ec 08          	sub    $0x8,%rsp
  40586e:	48 8b 05 23 1e 20 00 	mov    0x201e23(%rip),%rax        # 607698 <__CTOR_LIST__>
  405875:	48 83 f8 ff          	cmp    $0xffffffffffffffff,%rax
  405879:	74 14                	je     40588f <__do_global_ctors_aux+0x2f>
  40587b:	0f 1f 44 00 00       	nopl   0x0(%rax,%rax,1)
  405880:	48 83 eb 08          	sub    $0x8,%rbx
  405884:	ff d0                	callq  *%rax
  405886:	48 8b 03             	mov    (%rbx),%rax
  405889:	48 83 f8 ff          	cmp    $0xffffffffffffffff,%rax
  40588d:	75 f1                	jne    405880 <__do_global_ctors_aux+0x20>
  40588f:	48 83 c4 08          	add    $0x8,%rsp
  405893:	5b                   	pop    %rbx
  405894:	5d                   	pop    %rbp
  405895:	c3                   	retq   
  405896:	90                   	nop
  405897:	90                   	nop

Disassembly of section .fini:

0000000000405898 <_fini>:
  405898:	48 83 ec 08          	sub    $0x8,%rsp
  40589c:	e8 5f c9 ff ff       	callq  402200 <__do_global_dtors_aux>
  4058a1:	48 83 c4 08          	add    $0x8,%rsp
  4058a5:	c3                   	retq   
